
/home/ziya/huangtan/lab/os/os_leenux/diy-x86os/code/huangtan/build/source/kernel/kernel.elf：     文件格式 elf32-i386
/home/ziya/huangtan/lab/os/os_leenux/diy-x86os/code/huangtan/build/source/kernel/kernel.elf
体系结构：i386， 标志 0x00000112：
EXEC_P, HAS_SYMS, D_PAGED
起始地址 0x00010000

程序头：
    LOAD off    0x00001000 vaddr 0x00010000 paddr 0x00010000 align 2**12
         filesz 0x00002aed memsz 0x00006920 flags rwx
   STACK off    0x00000000 vaddr 0x00000000 paddr 0x00000000 align 2**4
         filesz 0x00000000 memsz 0x00000000 flags rwx

节：
Idx Name          Size      VMA       LMA       File off  Algn
  0 .text         00002453  00010000  00010000  00001000  2**0
                  CONTENTS, ALLOC, LOAD, READONLY, CODE
  1 .rodata       00000699  00012454  00012454  00003454  2**2
                  CONTENTS, ALLOC, LOAD, READONLY, DATA
  2 .bss          00003e20  00012b00  00012b00  00003aed  2**5
                  ALLOC
  3 .debug_line   0000162a  00000000  00000000  00003aed  2**0
                  CONTENTS, READONLY, DEBUGGING
  4 .debug_info   00002bdc  00000000  00000000  00005117  2**0
                  CONTENTS, READONLY, DEBUGGING
  5 .debug_abbrev 00000e67  00000000  00000000  00007cf3  2**0
                  CONTENTS, READONLY, DEBUGGING
  6 .debug_aranges 000001a0  00000000  00000000  00008b60  2**3
                  CONTENTS, READONLY, DEBUGGING
  7 .debug_str    00001135  00000000  00000000  00008d00  2**0
                  CONTENTS, READONLY, DEBUGGING
  8 .comment      00000035  00000000  00000000  00009e35  2**0
                  CONTENTS, READONLY
  9 .debug_frame  00001080  00000000  00000000  00009e6c  2**2
                  CONTENTS, READONLY, DEBUGGING
SYMBOL TABLE:
00010000 l    d  .text	00000000 .text
00012454 l    d  .rodata	00000000 .rodata
00012b00 l    d  .bss	00000000 .bss
00000000 l    d  .debug_line	00000000 .debug_line
00000000 l    d  .debug_info	00000000 .debug_info
00000000 l    d  .debug_abbrev	00000000 .debug_abbrev
00000000 l    d  .debug_aranges	00000000 .debug_aranges
00000000 l    d  .debug_str	00000000 .debug_str
00000000 l    d  .comment	00000000 .comment
00000000 l    d  .debug_frame	00000000 .debug_frame
00000000 l    df *ABS*	00000000 CMakeFiles/kernel.dir/init/start.S.obj
00010010 l       .text	00000000 gdt_reload
00000000 l    df *ABS*	00000000 cpu.c
000102f9 l     F .text	0000002b lgdt
00010324 l     F .text	0000001a far_jump
00012b00 l     O .bss	00000800 gdt_table
00000000 l    df *ABS*	00000000 irq.c
000104cd l     F .text	0000001d inb
000104ea l     F .text	0000001f outb
00010509 l     F .text	00000007 cli
00010510 l     F .text	00000007 sti
00010517 l     F .text	00000007 hlt
0001051e l     F .text	0000002b lidt
00010549 l     F .text	00000011 read_cr2
0001055a l     F .text	00000010 read_eflags
0001056a l     F .text	0000000b write_eflags
00013300 l     O .bss	00000400 idt_table
00010575 l     F .text	0000017e dump_core_regs
000106f3 l     F .text	0000004e do_default_handler
00010ad5 l     F .text	00000093 init_pic
00000000 l    df *ABS*	00000000 init.c
00013700 l     O .bss	00000004 init_boot_info
00000000 l    df *ABS*	00000000 time.c
00010f6f l     F .text	0000001f outb
00013704 l     O .bss	00000004 sys_tick
00010fb6 l     F .text	00000060 init_pit
00000000 l    df *ABS*	00000000 console.c
0001102e l     F .text	0000001d inb
0001104b l     F .text	0000001f outb
00013720 l     O .bss	00000054 console_buf
0001106a l     F .text	00000059 read_cursor_pos
000110c3 l     F .text	000000b0 erase_rows
00011173 l     F .text	00000086 scroll_up
000111f9 l     F .text	00000010 mov_to_col0
00011209 l     F .text	00000038 move_next_line
00011241 l     F .text	00000076 move_forward
000112b7 l     F .text	00000094 show_char
0001134b l     F .text	00000078 move_backword
000113c3 l     F .text	00000088 clear_display
00000000 l    df *ABS*	00000000 mutex.c
00011553 l     F .text	0000000b list_count
00000000 l    df *ABS*	00000000 sem.c
00000000 l    df *ABS*	00000000 log.c
00000000 l    df *ABS*	00000000 bitmap.c
00000000 l    df *ABS*	00000000 klib.c
00000000 l    df *ABS*	00000000 list.c
00011bba l     F .text	00000013 list_is_empty
00000000 l    df *ABS*	00000000 task.c
00011e1f l     F .text	00000007 hlt
00011e26 l     F .text	00000017 write_tr
00011e3d l     F .text	0000001b list_node_init
00011e58 l     F .text	0000000b list_node_next
00011e63 l     F .text	0000000b list_count
00011e6e l     F .text	0000000a list_first
00013780 l     O .bss	00000198 task_manager
00013920 l     O .bss	00001000 idle_task_stack
00011e78 l     F .text	0000010e tss_init
00012124 l     F .text	0000000a idle_task_entry
000121c5 l     F .text	00000046 task_next_run
0001177d g     F .text	00000036 bitmap_get_bit
00011b12 g     F .text	0000004f kernel_memcpy
00012269 g     F .text	0000000a task_current
00010e9f g     F .text	0000000b irq_enable_global
00011c4d g     F .text	00000061 list_insert_last
000123ef g     F .text	00000064 sys_msleep
00012273 g     F .text	00000053 sys_yield
00010875 g     F .text	0000001c do_handler_segment_not_present
00012191 g     F .text	00000034 task_set_ready
00011875 g     F .text	0000001b bitmap_is_set
00011b61 g     F .text	00000041 kernel_memset
000102b3 g       .text	00000000 exception_handler_virtual_exception
00011939 g     F .text	0000002d strings_count
000104c2 g     F .text	0000000b cpu_init
00011705 g     F .text	00000006 log_init
00010f1c g     F .text	00000053 init_main
0001024c g       .text	00000000 exception_handler_alignment_check
000119ac g     F .text	00000048 kernel_strcpy
00010d82 g     F .text	0000008b irq_enable
00010028 g       .text	00000000 exception_handler_unknown
000100b4 g       .text	00000000 exception_handler_breakpoint
000107cd g     F .text	0000001c do_handler_overflow
00010a65 g     F .text	0000001c do_handler_alignment_check
000101e7 g       .text	00000000 exception_handler_general_protection
000108ad g     F .text	000000c8 do_handler_general_protection
000117b3 g     F .text	000000c2 bitmap_set_bit
0001083d g     F .text	0000001c do_handler_double_fault
00010ef3 g     F .text	00000029 init_task_entry
00010975 g     F .text	000000d4 do_handler_page_fault
00010163 g       .text	00000000 exception_handler_double_fault
00010b68 g     F .text	0000002b pic_send_eoi
000120ef g     F .text	0000000a task_first_task
00010f8e g     F .text	00000028 do_handler_timer
000101c6 g       .text	00000000 exception_handler_stack_segment_fault
00010ab9 g     F .text	0000001c do_handler_virtual_exception
000100d7 g       .text	00000000 exception_handler_overflow
000102f9 g       .text	00000000 simple_switch
00014920 g     O .bss	00002000 stack
0001144b g     F .text	000000fc console_init
000100fa g       .text	00000000 exception_handler_bound_range
00010805 g     F .text	0000001c do_handler_invalid_opcode
00010184 g       .text	00000000 exception_handler_invalid_tss
00010a49 g     F .text	0000001c do_handler_fpu_error
000120b0 g     F .text	0000003f task_first_init
00010a81 g     F .text	0000001c do_handler_machine_check
00010779 g     F .text	0000001c do_handler_Debug
00011b00 g     F .text	00000012 kernel_strcat
00011bf0 g     F .text	0000005d list_insert_first
00012247 g     F .text	00000022 task_set_wakeup
00010795 g     F .text	0000001c do_handler_NMI
000119f4 g     F .text	0000006b kernel_strncpy
00010e94 g     F .text	0000000b irq_disable_global
00010ed3 g     F .text	00000020 kernel_init
000116e2 g     F .text	00000023 sem_init
00010000 g       .text	00000000 _start
00011bb4 g     F .text	00000006 kernel_vsprintf
00011966 g     F .text	00000046 get_file_name
00010140 g       .text	00000000 exception_handler_device_unavailable
0001011d g       .text	00000000 exception_handler_invalid_opcode
0001158c g     F .text	00000097 mutex_lock
0001026d g       .text	00000000 exception_handler_machine_check
00010859 g     F .text	0000001c do_handler_invalid_tss
0001220b g     F .text	0000003c task_set_sleep
000102d6 g       .text	00000000 exception_handler_timer
00010b93 g     F .text	00000040 irq_install
00010442 g     F .text	0000006d init_gdt
00010eaa g     F .text	00000018 irq_enter_protection
0001155e g     F .text	0000002e mutex_init
00010e0d g     F .text	00000087 irq_disable
00010290 g       .text	00000000 exception_handler_smd_exception
00011767 g     F .text	00000016 bitmap_byte_count
00010821 g     F .text	0000001c do_handler_device_unavailable
000122c6 g     F .text	00000043 task_dispatch
000104af g     F .text	00000013 switch_to_tss
00011547 g     F .text	00000006 console_write
00011ba2 g     F .text	00000006 kernel_memcmp
00011bcd g     F .text	00000023 list_init
00010a9d g     F .text	0000001c do_handler_smd_exception
00010208 g       .text	00000000 exception_handler_page_fault
000120f9 g     F .text	0000002b task_set_block
00010741 g     F .text	0000001c do_handler_unknown
00010229 g       .text	00000000 exception_handler_fpu_error
0001208e g     F .text	00000022 task_switch_from_to
00010bd3 g     F .text	000001af irq_init
00011623 g     F .text	000000bf mutex_unlock
00010ec2 g     F .text	00000011 irq_leave_protection
00011acd g     F .text	00000033 kernel_strlen
0001004b g       .text	00000000 exception_handler_driver
0001033e g     F .text	00000079 segment_desc_set
000107e9 g     F .text	0000001c do_handler_bound_range
00011cae g     F .text	0000008c list_remove_first
0001075d g     F .text	0000001c do_handler_driver
00011a5f g     F .text	0000006e kernel_strncmp
00011711 g     F .text	00000056 bitmap_init
000101a5 g       .text	00000000 exception_handler_segment_not_present
00010091 g       .text	00000000 exception_handler_NMI
00011890 g     F .text	000000a9 bitmap_alloc_nbits
0001212e g     F .text	00000063 task_manager_init
0001006e g       .text	00000000 exception_handler_Debug
00012309 g     F .text	000000e6 task_time_tick
0001154d g     F .text	00000006 console_close
00010891 g     F .text	0000001c do_handler_stack_segment_fault
000107b1 g     F .text	0000001c do_handler_breakpoint
0001170b g     F .text	00000006 log_printf
00011f86 g     F .text	00000108 task_init
00011bae g     F .text	00000006 kernel_sprintf
000103fd g     F .text	00000045 gdt_alloc_desc
00011ba8 g     F .text	00000006 kernel_itoa
00011d3a g     F .text	000000e5 list_remove
000103b7 g     F .text	00000046 gate_desc_set
00011016 g     F .text	00000018 time_init



Disassembly of section .text:

00010000 <_start>:
      .text
      .extern kernel_init
      .extern init_main
      .global _start
_start: 
    push 4(%esp) //传指针/地址 模拟c调用函数 这里的意思是将[esp+4的值压栈],同时esp的值减4
   10000:	ff 74 24 04          	pushl  0x4(%esp)
    call kernel_init
   10004:	e8 ca 0e 00 00       	call   10ed3 <kernel_init>

    jmp $KERNEL_SELECTOR_CS,$gdt_reload
   10009:	ea 10 00 01 00 08 00 	ljmp   $0x8,$0x10010

00010010 <gdt_reload>:


gdt_reload:
    mov $KERNEL_SELECTOR_DS,%ax
   10010:	66 b8 10 00          	mov    $0x10,%ax
    mov %ax,%ds
   10014:	8e d8                	mov    %eax,%ds
    mov %ax,%es
   10016:	8e c0                	mov    %eax,%es
    mov %ax,%fs
   10018:	8e e0                	mov    %eax,%fs
    mov %ax,%gs
   1001a:	8e e8                	mov    %eax,%gs
    mov %ax,%ss
   1001c:	8e d0                	mov    %eax,%ss

    mov $(stack+KERNEL_STACK_SIZE),%esp
   1001e:	bc 20 69 01 00       	mov    $0x16920,%esp

    jmp init_main
   10023:	e9 f4 0e 00 00       	jmp    10f1c <init_main>

00010028 <exception_handler_unknown>:
    popal
    add $(2*4), %esp
    iret
.endm

exception_handler unknown,-1,0//怎么还有负数
   10028:	6a 00                	push   $0x0
   1002a:	ff 35 ff ff ff ff    	pushl  0xffffffff
   10030:	60                   	pusha  
   10031:	1e                   	push   %ds
   10032:	06                   	push   %es
   10033:	0f a0                	push   %fs
   10035:	0f a8                	push   %gs
   10037:	54                   	push   %esp
   10038:	e8 04 07 00 00       	call   10741 <do_handler_unknown>
   1003d:	83 c4 04             	add    $0x4,%esp
   10040:	0f a9                	pop    %gs
   10042:	0f a1                	pop    %fs
   10044:	07                   	pop    %es
   10045:	1f                   	pop    %ds
   10046:	61                   	popa   
   10047:	83 c4 08             	add    $0x8,%esp
   1004a:	cf                   	iret   

0001004b <exception_handler_driver>:
exception_handler driver,0,0
   1004b:	6a 00                	push   $0x0
   1004d:	ff 35 00 00 00 00    	pushl  0x0
   10053:	60                   	pusha  
   10054:	1e                   	push   %ds
   10055:	06                   	push   %es
   10056:	0f a0                	push   %fs
   10058:	0f a8                	push   %gs
   1005a:	54                   	push   %esp
   1005b:	e8 fd 06 00 00       	call   1075d <do_handler_driver>
   10060:	83 c4 04             	add    $0x4,%esp
   10063:	0f a9                	pop    %gs
   10065:	0f a1                	pop    %fs
   10067:	07                   	pop    %es
   10068:	1f                   	pop    %ds
   10069:	61                   	popa   
   1006a:	83 c4 08             	add    $0x8,%esp
   1006d:	cf                   	iret   

0001006e <exception_handler_Debug>:
exception_handler Debug,1,0
   1006e:	6a 00                	push   $0x0
   10070:	ff 35 01 00 00 00    	pushl  0x1
   10076:	60                   	pusha  
   10077:	1e                   	push   %ds
   10078:	06                   	push   %es
   10079:	0f a0                	push   %fs
   1007b:	0f a8                	push   %gs
   1007d:	54                   	push   %esp
   1007e:	e8 f6 06 00 00       	call   10779 <do_handler_Debug>
   10083:	83 c4 04             	add    $0x4,%esp
   10086:	0f a9                	pop    %gs
   10088:	0f a1                	pop    %fs
   1008a:	07                   	pop    %es
   1008b:	1f                   	pop    %ds
   1008c:	61                   	popa   
   1008d:	83 c4 08             	add    $0x8,%esp
   10090:	cf                   	iret   

00010091 <exception_handler_NMI>:
exception_handler NMI,2,0
   10091:	6a 00                	push   $0x0
   10093:	ff 35 02 00 00 00    	pushl  0x2
   10099:	60                   	pusha  
   1009a:	1e                   	push   %ds
   1009b:	06                   	push   %es
   1009c:	0f a0                	push   %fs
   1009e:	0f a8                	push   %gs
   100a0:	54                   	push   %esp
   100a1:	e8 ef 06 00 00       	call   10795 <do_handler_NMI>
   100a6:	83 c4 04             	add    $0x4,%esp
   100a9:	0f a9                	pop    %gs
   100ab:	0f a1                	pop    %fs
   100ad:	07                   	pop    %es
   100ae:	1f                   	pop    %ds
   100af:	61                   	popa   
   100b0:	83 c4 08             	add    $0x8,%esp
   100b3:	cf                   	iret   

000100b4 <exception_handler_breakpoint>:
exception_handler breakpoint,3,0
   100b4:	6a 00                	push   $0x0
   100b6:	ff 35 03 00 00 00    	pushl  0x3
   100bc:	60                   	pusha  
   100bd:	1e                   	push   %ds
   100be:	06                   	push   %es
   100bf:	0f a0                	push   %fs
   100c1:	0f a8                	push   %gs
   100c3:	54                   	push   %esp
   100c4:	e8 e8 06 00 00       	call   107b1 <do_handler_breakpoint>
   100c9:	83 c4 04             	add    $0x4,%esp
   100cc:	0f a9                	pop    %gs
   100ce:	0f a1                	pop    %fs
   100d0:	07                   	pop    %es
   100d1:	1f                   	pop    %ds
   100d2:	61                   	popa   
   100d3:	83 c4 08             	add    $0x8,%esp
   100d6:	cf                   	iret   

000100d7 <exception_handler_overflow>:
exception_handler overflow,4,0
   100d7:	6a 00                	push   $0x0
   100d9:	ff 35 04 00 00 00    	pushl  0x4
   100df:	60                   	pusha  
   100e0:	1e                   	push   %ds
   100e1:	06                   	push   %es
   100e2:	0f a0                	push   %fs
   100e4:	0f a8                	push   %gs
   100e6:	54                   	push   %esp
   100e7:	e8 e1 06 00 00       	call   107cd <do_handler_overflow>
   100ec:	83 c4 04             	add    $0x4,%esp
   100ef:	0f a9                	pop    %gs
   100f1:	0f a1                	pop    %fs
   100f3:	07                   	pop    %es
   100f4:	1f                   	pop    %ds
   100f5:	61                   	popa   
   100f6:	83 c4 08             	add    $0x8,%esp
   100f9:	cf                   	iret   

000100fa <exception_handler_bound_range>:
exception_handler bound_range,5,0
   100fa:	6a 00                	push   $0x0
   100fc:	ff 35 05 00 00 00    	pushl  0x5
   10102:	60                   	pusha  
   10103:	1e                   	push   %ds
   10104:	06                   	push   %es
   10105:	0f a0                	push   %fs
   10107:	0f a8                	push   %gs
   10109:	54                   	push   %esp
   1010a:	e8 da 06 00 00       	call   107e9 <do_handler_bound_range>
   1010f:	83 c4 04             	add    $0x4,%esp
   10112:	0f a9                	pop    %gs
   10114:	0f a1                	pop    %fs
   10116:	07                   	pop    %es
   10117:	1f                   	pop    %ds
   10118:	61                   	popa   
   10119:	83 c4 08             	add    $0x8,%esp
   1011c:	cf                   	iret   

0001011d <exception_handler_invalid_opcode>:
exception_handler invalid_opcode,6,0
   1011d:	6a 00                	push   $0x0
   1011f:	ff 35 06 00 00 00    	pushl  0x6
   10125:	60                   	pusha  
   10126:	1e                   	push   %ds
   10127:	06                   	push   %es
   10128:	0f a0                	push   %fs
   1012a:	0f a8                	push   %gs
   1012c:	54                   	push   %esp
   1012d:	e8 d3 06 00 00       	call   10805 <do_handler_invalid_opcode>
   10132:	83 c4 04             	add    $0x4,%esp
   10135:	0f a9                	pop    %gs
   10137:	0f a1                	pop    %fs
   10139:	07                   	pop    %es
   1013a:	1f                   	pop    %ds
   1013b:	61                   	popa   
   1013c:	83 c4 08             	add    $0x8,%esp
   1013f:	cf                   	iret   

00010140 <exception_handler_device_unavailable>:
exception_handler device_unavailable,7,0
   10140:	6a 00                	push   $0x0
   10142:	ff 35 07 00 00 00    	pushl  0x7
   10148:	60                   	pusha  
   10149:	1e                   	push   %ds
   1014a:	06                   	push   %es
   1014b:	0f a0                	push   %fs
   1014d:	0f a8                	push   %gs
   1014f:	54                   	push   %esp
   10150:	e8 cc 06 00 00       	call   10821 <do_handler_device_unavailable>
   10155:	83 c4 04             	add    $0x4,%esp
   10158:	0f a9                	pop    %gs
   1015a:	0f a1                	pop    %fs
   1015c:	07                   	pop    %es
   1015d:	1f                   	pop    %ds
   1015e:	61                   	popa   
   1015f:	83 c4 08             	add    $0x8,%esp
   10162:	cf                   	iret   

00010163 <exception_handler_double_fault>:
exception_handler double_fault,8,1
   10163:	ff 35 08 00 00 00    	pushl  0x8
   10169:	60                   	pusha  
   1016a:	1e                   	push   %ds
   1016b:	06                   	push   %es
   1016c:	0f a0                	push   %fs
   1016e:	0f a8                	push   %gs
   10170:	54                   	push   %esp
   10171:	e8 c7 06 00 00       	call   1083d <do_handler_double_fault>
   10176:	83 c4 04             	add    $0x4,%esp
   10179:	0f a9                	pop    %gs
   1017b:	0f a1                	pop    %fs
   1017d:	07                   	pop    %es
   1017e:	1f                   	pop    %ds
   1017f:	61                   	popa   
   10180:	83 c4 08             	add    $0x8,%esp
   10183:	cf                   	iret   

00010184 <exception_handler_invalid_tss>:
exception_handler invalid_tss,10,1
   10184:	ff 35 0a 00 00 00    	pushl  0xa
   1018a:	60                   	pusha  
   1018b:	1e                   	push   %ds
   1018c:	06                   	push   %es
   1018d:	0f a0                	push   %fs
   1018f:	0f a8                	push   %gs
   10191:	54                   	push   %esp
   10192:	e8 c2 06 00 00       	call   10859 <do_handler_invalid_tss>
   10197:	83 c4 04             	add    $0x4,%esp
   1019a:	0f a9                	pop    %gs
   1019c:	0f a1                	pop    %fs
   1019e:	07                   	pop    %es
   1019f:	1f                   	pop    %ds
   101a0:	61                   	popa   
   101a1:	83 c4 08             	add    $0x8,%esp
   101a4:	cf                   	iret   

000101a5 <exception_handler_segment_not_present>:
exception_handler segment_not_present,11,1
   101a5:	ff 35 0b 00 00 00    	pushl  0xb
   101ab:	60                   	pusha  
   101ac:	1e                   	push   %ds
   101ad:	06                   	push   %es
   101ae:	0f a0                	push   %fs
   101b0:	0f a8                	push   %gs
   101b2:	54                   	push   %esp
   101b3:	e8 bd 06 00 00       	call   10875 <do_handler_segment_not_present>
   101b8:	83 c4 04             	add    $0x4,%esp
   101bb:	0f a9                	pop    %gs
   101bd:	0f a1                	pop    %fs
   101bf:	07                   	pop    %es
   101c0:	1f                   	pop    %ds
   101c1:	61                   	popa   
   101c2:	83 c4 08             	add    $0x8,%esp
   101c5:	cf                   	iret   

000101c6 <exception_handler_stack_segment_fault>:
exception_handler stack_segment_fault,12,1
   101c6:	ff 35 0c 00 00 00    	pushl  0xc
   101cc:	60                   	pusha  
   101cd:	1e                   	push   %ds
   101ce:	06                   	push   %es
   101cf:	0f a0                	push   %fs
   101d1:	0f a8                	push   %gs
   101d3:	54                   	push   %esp
   101d4:	e8 b8 06 00 00       	call   10891 <do_handler_stack_segment_fault>
   101d9:	83 c4 04             	add    $0x4,%esp
   101dc:	0f a9                	pop    %gs
   101de:	0f a1                	pop    %fs
   101e0:	07                   	pop    %es
   101e1:	1f                   	pop    %ds
   101e2:	61                   	popa   
   101e3:	83 c4 08             	add    $0x8,%esp
   101e6:	cf                   	iret   

000101e7 <exception_handler_general_protection>:
exception_handler general_protection,13,1
   101e7:	ff 35 0d 00 00 00    	pushl  0xd
   101ed:	60                   	pusha  
   101ee:	1e                   	push   %ds
   101ef:	06                   	push   %es
   101f0:	0f a0                	push   %fs
   101f2:	0f a8                	push   %gs
   101f4:	54                   	push   %esp
   101f5:	e8 b3 06 00 00       	call   108ad <do_handler_general_protection>
   101fa:	83 c4 04             	add    $0x4,%esp
   101fd:	0f a9                	pop    %gs
   101ff:	0f a1                	pop    %fs
   10201:	07                   	pop    %es
   10202:	1f                   	pop    %ds
   10203:	61                   	popa   
   10204:	83 c4 08             	add    $0x8,%esp
   10207:	cf                   	iret   

00010208 <exception_handler_page_fault>:
exception_handler page_fault,14,1
   10208:	ff 35 0e 00 00 00    	pushl  0xe
   1020e:	60                   	pusha  
   1020f:	1e                   	push   %ds
   10210:	06                   	push   %es
   10211:	0f a0                	push   %fs
   10213:	0f a8                	push   %gs
   10215:	54                   	push   %esp
   10216:	e8 5a 07 00 00       	call   10975 <do_handler_page_fault>
   1021b:	83 c4 04             	add    $0x4,%esp
   1021e:	0f a9                	pop    %gs
   10220:	0f a1                	pop    %fs
   10222:	07                   	pop    %es
   10223:	1f                   	pop    %ds
   10224:	61                   	popa   
   10225:	83 c4 08             	add    $0x8,%esp
   10228:	cf                   	iret   

00010229 <exception_handler_fpu_error>:
exception_handler fpu_error,16,0
   10229:	6a 00                	push   $0x0
   1022b:	ff 35 10 00 00 00    	pushl  0x10
   10231:	60                   	pusha  
   10232:	1e                   	push   %ds
   10233:	06                   	push   %es
   10234:	0f a0                	push   %fs
   10236:	0f a8                	push   %gs
   10238:	54                   	push   %esp
   10239:	e8 0b 08 00 00       	call   10a49 <do_handler_fpu_error>
   1023e:	83 c4 04             	add    $0x4,%esp
   10241:	0f a9                	pop    %gs
   10243:	0f a1                	pop    %fs
   10245:	07                   	pop    %es
   10246:	1f                   	pop    %ds
   10247:	61                   	popa   
   10248:	83 c4 08             	add    $0x8,%esp
   1024b:	cf                   	iret   

0001024c <exception_handler_alignment_check>:
exception_handler alignment_check,17,1
   1024c:	ff 35 11 00 00 00    	pushl  0x11
   10252:	60                   	pusha  
   10253:	1e                   	push   %ds
   10254:	06                   	push   %es
   10255:	0f a0                	push   %fs
   10257:	0f a8                	push   %gs
   10259:	54                   	push   %esp
   1025a:	e8 06 08 00 00       	call   10a65 <do_handler_alignment_check>
   1025f:	83 c4 04             	add    $0x4,%esp
   10262:	0f a9                	pop    %gs
   10264:	0f a1                	pop    %fs
   10266:	07                   	pop    %es
   10267:	1f                   	pop    %ds
   10268:	61                   	popa   
   10269:	83 c4 08             	add    $0x8,%esp
   1026c:	cf                   	iret   

0001026d <exception_handler_machine_check>:
exception_handler machine_check,18,0
   1026d:	6a 00                	push   $0x0
   1026f:	ff 35 12 00 00 00    	pushl  0x12
   10275:	60                   	pusha  
   10276:	1e                   	push   %ds
   10277:	06                   	push   %es
   10278:	0f a0                	push   %fs
   1027a:	0f a8                	push   %gs
   1027c:	54                   	push   %esp
   1027d:	e8 ff 07 00 00       	call   10a81 <do_handler_machine_check>
   10282:	83 c4 04             	add    $0x4,%esp
   10285:	0f a9                	pop    %gs
   10287:	0f a1                	pop    %fs
   10289:	07                   	pop    %es
   1028a:	1f                   	pop    %ds
   1028b:	61                   	popa   
   1028c:	83 c4 08             	add    $0x8,%esp
   1028f:	cf                   	iret   

00010290 <exception_handler_smd_exception>:
exception_handler smd_exception,19,0
   10290:	6a 00                	push   $0x0
   10292:	ff 35 13 00 00 00    	pushl  0x13
   10298:	60                   	pusha  
   10299:	1e                   	push   %ds
   1029a:	06                   	push   %es
   1029b:	0f a0                	push   %fs
   1029d:	0f a8                	push   %gs
   1029f:	54                   	push   %esp
   102a0:	e8 f8 07 00 00       	call   10a9d <do_handler_smd_exception>
   102a5:	83 c4 04             	add    $0x4,%esp
   102a8:	0f a9                	pop    %gs
   102aa:	0f a1                	pop    %fs
   102ac:	07                   	pop    %es
   102ad:	1f                   	pop    %ds
   102ae:	61                   	popa   
   102af:	83 c4 08             	add    $0x8,%esp
   102b2:	cf                   	iret   

000102b3 <exception_handler_virtual_exception>:
exception_handler virtual_exception,20,0
   102b3:	6a 00                	push   $0x0
   102b5:	ff 35 14 00 00 00    	pushl  0x14
   102bb:	60                   	pusha  
   102bc:	1e                   	push   %ds
   102bd:	06                   	push   %es
   102be:	0f a0                	push   %fs
   102c0:	0f a8                	push   %gs
   102c2:	54                   	push   %esp
   102c3:	e8 f1 07 00 00       	call   10ab9 <do_handler_virtual_exception>
   102c8:	83 c4 04             	add    $0x4,%esp
   102cb:	0f a9                	pop    %gs
   102cd:	0f a1                	pop    %fs
   102cf:	07                   	pop    %es
   102d0:	1f                   	pop    %ds
   102d1:	61                   	popa   
   102d2:	83 c4 08             	add    $0x8,%esp
   102d5:	cf                   	iret   

000102d6 <exception_handler_timer>:

exception_handler timer,0x20,0
   102d6:	6a 00                	push   $0x0
   102d8:	ff 35 20 00 00 00    	pushl  0x20
   102de:	60                   	pusha  
   102df:	1e                   	push   %ds
   102e0:	06                   	push   %es
   102e1:	0f a0                	push   %fs
   102e3:	0f a8                	push   %gs
   102e5:	54                   	push   %esp
   102e6:	e8 a3 0c 00 00       	call   10f8e <do_handler_timer>
   102eb:	83 c4 04             	add    $0x4,%esp
   102ee:	0f a9                	pop    %gs
   102f0:	0f a1                	pop    %fs
   102f2:	07                   	pop    %es
   102f3:	1f                   	pop    %ds
   102f4:	61                   	popa   
   102f5:	83 c4 08             	add    $0x8,%esp
   102f8:	cf                   	iret   

000102f9 <lgdt>:
static inline uint32_t rdtsc(){
    uint32_t ret;
    __asm__ __volatile__("rdtsc" : "=a"(ret));
    return ret;
}
static inline void lgdt(uint32_t start,uint32_t size){
   102f9:	55                   	push   %ebp
   102fa:	89 e5                	mov    %esp,%ebp
   102fc:	83 ec 10             	sub    $0x10,%esp
    {
        uint16_t limit;
        uint16_t start15_0;
        uint16_t start31_16;
    }gdt;
    gdt.limit=size-1;   
   102ff:	8b 45 0c             	mov    0xc(%ebp),%eax
   10302:	83 e8 01             	sub    $0x1,%eax
   10305:	66 89 45 fa          	mov    %ax,-0x6(%ebp)
    gdt.start15_0=start&0xffff;
   10309:	8b 45 08             	mov    0x8(%ebp),%eax
   1030c:	66 89 45 fc          	mov    %ax,-0x4(%ebp)
    gdt.start31_16=(start>>16)&0xff;
   10310:	8b 45 08             	mov    0x8(%ebp),%eax
   10313:	c1 e8 10             	shr    $0x10,%eax
   10316:	0f b6 c0             	movzbl %al,%eax
   10319:	66 89 45 fe          	mov    %ax,-0x2(%ebp)
    __asm__ __volatile__("lgdt %[g]" : : [g]"m"(gdt));
   1031d:	0f 01 55 fa          	lgdtl  -0x6(%ebp)
    
}
   10321:	90                   	nop
   10322:	c9                   	leave  
   10323:	c3                   	ret    

00010324 <far_jump>:
    return ret;
}
static inline void write_eflags(uint32_t val){
    __asm__ __volatile__("pushl %%eax; popfl" : : "a"(val));
}
static inline void far_jump(uint32_t selector,uint32_t offset){
   10324:	55                   	push   %ebp
   10325:	89 e5                	mov    %esp,%ebp
   10327:	83 ec 10             	sub    $0x10,%esp
    uint32_t addr[]={offset,selector};
   1032a:	8b 45 0c             	mov    0xc(%ebp),%eax
   1032d:	89 45 f8             	mov    %eax,-0x8(%ebp)
   10330:	8b 45 08             	mov    0x8(%ebp),%eax
   10333:	89 45 fc             	mov    %eax,-0x4(%ebp)
    //*(%[a])：这是一个间接寻址（indirect addressing）表达式。*表示要跳转到寻址结果指向的地址。(%[a])表示使用变量 a 的值作为内存地址进行间接寻址
    __asm__ __volatile__("ljmpl *(%[a])" : : [a]"r"(addr));
   10336:	8d 45 f8             	lea    -0x8(%ebp),%eax
   10339:	ff 28                	ljmp   *(%eax)
}
   1033b:	90                   	nop
   1033c:	c9                   	leave  
   1033d:	c3                   	ret    

0001033e <segment_desc_set>:
#include "comm/cpu_instr.h"
#include "cpu/cpu.h"
#include "os_cfg.h"

static segment_desc_t gdt_table[GDT_TABLE_SIZE]; 
void segment_desc_set(int selector, uint32_t base, uint32_t limit, uint8_t attr){
   1033e:	55                   	push   %ebp
   1033f:	89 e5                	mov    %esp,%ebp
   10341:	83 ec 14             	sub    $0x14,%esp
   10344:	8b 45 14             	mov    0x14(%ebp),%eax
   10347:	88 45 ec             	mov    %al,-0x14(%ebp)
    segment_desc_t*desc=gdt_table+(selector>>3);
   1034a:	8b 45 08             	mov    0x8(%ebp),%eax
   1034d:	c1 f8 03             	sar    $0x3,%eax
   10350:	c1 e0 03             	shl    $0x3,%eax
   10353:	05 00 2b 01 00       	add    $0x12b00,%eax
   10358:	89 45 fc             	mov    %eax,-0x4(%ebp)
    if(limit>0xfffff){
   1035b:	81 7d 10 ff ff 0f 00 	cmpl   $0xfffff,0x10(%ebp)
   10362:	76 04                	jbe    10368 <segment_desc_set+0x2a>
        //长度太大改为4KB
        attr|=0x8000;
        limit>>=12;
   10364:	c1 6d 10 0c          	shrl   $0xc,0x10(%ebp)
    }
    desc->base15_0=base&0xffff;
   10368:	8b 45 0c             	mov    0xc(%ebp),%eax
   1036b:	89 c2                	mov    %eax,%edx
   1036d:	8b 45 fc             	mov    -0x4(%ebp),%eax
   10370:	66 89 50 02          	mov    %dx,0x2(%eax)
    desc->limit15_0=limit&0xffff;
   10374:	8b 45 10             	mov    0x10(%ebp),%eax
   10377:	89 c2                	mov    %eax,%edx
   10379:	8b 45 fc             	mov    -0x4(%ebp),%eax
   1037c:	66 89 10             	mov    %dx,(%eax)
    desc->base23_16=(base>>16)&0xff;
   1037f:	8b 45 0c             	mov    0xc(%ebp),%eax
   10382:	c1 e8 10             	shr    $0x10,%eax
   10385:	89 c2                	mov    %eax,%edx
   10387:	8b 45 fc             	mov    -0x4(%ebp),%eax
   1038a:	88 50 04             	mov    %dl,0x4(%eax)
    desc->attr=attr|(((limit>>16)&0xf)<<8);
   1038d:	0f b6 45 ec          	movzbl -0x14(%ebp),%eax
   10391:	8b 55 10             	mov    0x10(%ebp),%edx
   10394:	c1 ea 10             	shr    $0x10,%edx
   10397:	83 e2 0f             	and    $0xf,%edx
   1039a:	c1 e2 08             	shl    $0x8,%edx
   1039d:	09 c2                	or     %eax,%edx
   1039f:	8b 45 fc             	mov    -0x4(%ebp),%eax
   103a2:	66 89 50 05          	mov    %dx,0x5(%eax)
    desc->base31_24=(base>>24)&0xff;  
   103a6:	8b 45 0c             	mov    0xc(%ebp),%eax
   103a9:	c1 e8 18             	shr    $0x18,%eax
   103ac:	89 c2                	mov    %eax,%edx
   103ae:	8b 45 fc             	mov    -0x4(%ebp),%eax
   103b1:	88 50 07             	mov    %dl,0x7(%eax)

}
   103b4:	90                   	nop
   103b5:	c9                   	leave  
   103b6:	c3                   	ret    

000103b7 <gate_desc_set>:


void gate_desc_set(gate_desc_t*dest, uint32_t offset, uint16_t selector, uint8_t attr){
   103b7:	55                   	push   %ebp
   103b8:	89 e5                	mov    %esp,%ebp
   103ba:	83 ec 08             	sub    $0x8,%esp
   103bd:	8b 55 10             	mov    0x10(%ebp),%edx
   103c0:	8b 45 14             	mov    0x14(%ebp),%eax
   103c3:	66 89 55 fc          	mov    %dx,-0x4(%ebp)
   103c7:	88 45 f8             	mov    %al,-0x8(%ebp)
    dest->offset15_0=offset&0xffff;
   103ca:	8b 45 0c             	mov    0xc(%ebp),%eax
   103cd:	89 c2                	mov    %eax,%edx
   103cf:	8b 45 08             	mov    0x8(%ebp),%eax
   103d2:	66 89 10             	mov    %dx,(%eax)
    dest->selector=selector;
   103d5:	8b 45 08             	mov    0x8(%ebp),%eax
   103d8:	0f b7 55 fc          	movzwl -0x4(%ebp),%edx
   103dc:	66 89 50 02          	mov    %dx,0x2(%eax)
    dest->attr=attr;
   103e0:	0f b6 55 f8          	movzbl -0x8(%ebp),%edx
   103e4:	8b 45 08             	mov    0x8(%ebp),%eax
   103e7:	66 89 50 04          	mov    %dx,0x4(%eax)
    dest->offset31_16=(offset>>16)&0xffff;
   103eb:	8b 45 0c             	mov    0xc(%ebp),%eax
   103ee:	c1 e8 10             	shr    $0x10,%eax
   103f1:	89 c2                	mov    %eax,%edx
   103f3:	8b 45 08             	mov    0x8(%ebp),%eax
   103f6:	66 89 50 06          	mov    %dx,0x6(%eax)
}
   103fa:	90                   	nop
   103fb:	c9                   	leave  
   103fc:	c3                   	ret    

000103fd <gdt_alloc_desc>:

int gdt_alloc_desc(void){
   103fd:	55                   	push   %ebp
   103fe:	89 e5                	mov    %esp,%ebp
   10400:	83 ec 10             	sub    $0x10,%esp
    for(int i=1;i<GDT_TABLE_SIZE;i++){
   10403:	c7 45 fc 01 00 00 00 	movl   $0x1,-0x4(%ebp)
   1040a:	eb 26                	jmp    10432 <gdt_alloc_desc+0x35>
        segment_desc_t*desc=gdt_table+i;
   1040c:	8b 45 fc             	mov    -0x4(%ebp),%eax
   1040f:	c1 e0 03             	shl    $0x3,%eax
   10412:	05 00 2b 01 00       	add    $0x12b00,%eax
   10417:	89 45 f8             	mov    %eax,-0x8(%ebp)
        if(desc->attr==0){
   1041a:	8b 45 f8             	mov    -0x8(%ebp),%eax
   1041d:	0f b7 40 05          	movzwl 0x5(%eax),%eax
   10421:	66 85 c0             	test   %ax,%ax
   10424:	75 08                	jne    1042e <gdt_alloc_desc+0x31>
            return i*sizeof(segment_desc_t);
   10426:	8b 45 fc             	mov    -0x4(%ebp),%eax
   10429:	c1 e0 03             	shl    $0x3,%eax
   1042c:	eb 12                	jmp    10440 <gdt_alloc_desc+0x43>
    dest->attr=attr;
    dest->offset31_16=(offset>>16)&0xffff;
}

int gdt_alloc_desc(void){
    for(int i=1;i<GDT_TABLE_SIZE;i++){
   1042e:	83 45 fc 01          	addl   $0x1,-0x4(%ebp)
   10432:	81 7d fc ff 00 00 00 	cmpl   $0xff,-0x4(%ebp)
   10439:	7e d1                	jle    1040c <gdt_alloc_desc+0xf>
        segment_desc_t*desc=gdt_table+i;
        if(desc->attr==0){
            return i*sizeof(segment_desc_t);
        }
    }
    return -1;
   1043b:	b8 ff ff ff ff       	mov    $0xffffffff,%eax
}
   10440:	c9                   	leave  
   10441:	c3                   	ret    

00010442 <init_gdt>:
void init_gdt(){
   10442:	55                   	push   %ebp
   10443:	89 e5                	mov    %esp,%ebp
   10445:	83 ec 10             	sub    $0x10,%esp
    for(int i=0;i<GDT_TABLE_SIZE;i++){
   10448:	c7 45 fc 00 00 00 00 	movl   $0x0,-0x4(%ebp)
   1044f:	eb 19                	jmp    1046a <init_gdt+0x28>
        segment_desc_set(i<<3,0,0,0);
   10451:	8b 45 fc             	mov    -0x4(%ebp),%eax
   10454:	c1 e0 03             	shl    $0x3,%eax
   10457:	6a 00                	push   $0x0
   10459:	6a 00                	push   $0x0
   1045b:	6a 00                	push   $0x0
   1045d:	50                   	push   %eax
   1045e:	e8 db fe ff ff       	call   1033e <segment_desc_set>
   10463:	83 c4 10             	add    $0x10,%esp
        }
    }
    return -1;
}
void init_gdt(){
    for(int i=0;i<GDT_TABLE_SIZE;i++){
   10466:	83 45 fc 01          	addl   $0x1,-0x4(%ebp)
   1046a:	81 7d fc ff 00 00 00 	cmpl   $0xff,-0x4(%ebp)
   10471:	7e de                	jle    10451 <init_gdt+0xf>
        segment_desc_set(i<<3,0,0,0);
    }
    segment_desc_set(KERNEL_SELECTOR_DS,0,0xffffffff,SEG_DPL0|SEG_P_PRESENT|SEG_S_NORMAL|SEG_TYPE_DATA
   10473:	68 92 00 00 00       	push   $0x92
   10478:	6a ff                	push   $0xffffffff
   1047a:	6a 00                	push   $0x0
   1047c:	6a 10                	push   $0x10
   1047e:	e8 bb fe ff ff       	call   1033e <segment_desc_set>
   10483:	83 c4 10             	add    $0x10,%esp
    |SEG_D|SEG_G|SEG_TYPE_RW);
    segment_desc_set(KERNEL_SELECTOR_CS,0,0xffffffff,SEG_DPL0|SEG_P_PRESENT|SEG_S_NORMAL|SEG_TYPE_CODE
   10486:	68 9a 00 00 00       	push   $0x9a
   1048b:	6a ff                	push   $0xffffffff
   1048d:	6a 00                	push   $0x0
   1048f:	6a 08                	push   $0x8
   10491:	e8 a8 fe ff ff       	call   1033e <segment_desc_set>
   10496:	83 c4 10             	add    $0x10,%esp
    |SEG_D|SEG_G|SEG_TYPE_RW);

    lgdt((uint32_t)gdt_table,sizeof(gdt_table));
   10499:	b8 00 2b 01 00       	mov    $0x12b00,%eax
   1049e:	68 00 08 00 00       	push   $0x800
   104a3:	50                   	push   %eax
   104a4:	e8 50 fe ff ff       	call   102f9 <lgdt>
   104a9:	83 c4 08             	add    $0x8,%esp
}
   104ac:	90                   	nop
   104ad:	c9                   	leave  
   104ae:	c3                   	ret    

000104af <switch_to_tss>:
void switch_to_tss(uint32_t tss_selector){
   104af:	55                   	push   %ebp
   104b0:	89 e5                	mov    %esp,%ebp
    far_jump(tss_selector,0);
   104b2:	6a 00                	push   $0x0
   104b4:	ff 75 08             	pushl  0x8(%ebp)
   104b7:	e8 68 fe ff ff       	call   10324 <far_jump>
   104bc:	83 c4 08             	add    $0x8,%esp
}
   104bf:	90                   	nop
   104c0:	c9                   	leave  
   104c1:	c3                   	ret    

000104c2 <cpu_init>:
void cpu_init(void){
   104c2:	55                   	push   %ebp
   104c3:	89 e5                	mov    %esp,%ebp
    init_gdt();
   104c5:	e8 78 ff ff ff       	call   10442 <init_gdt>
   104ca:	90                   	nop
   104cb:	5d                   	pop    %ebp
   104cc:	c3                   	ret    

000104cd <inb>:
//一些简单汇编的封装
#ifndef CPU_INSTR_H
#define CPU_INSTR_H
#include"types.h"
static inline uint8_t inb(uint16_t port){
   104cd:	55                   	push   %ebp
   104ce:	89 e5                	mov    %esp,%ebp
   104d0:	83 ec 14             	sub    $0x14,%esp
   104d3:	8b 45 08             	mov    0x8(%ebp),%eax
   104d6:	66 89 45 ec          	mov    %ax,-0x14(%ebp)
    uint8_t ret;
    __asm__ __volatile__("inb %[p], %[v]" : [v]"=a"(ret) : [p]"d"(port));
   104da:	0f b7 45 ec          	movzwl -0x14(%ebp),%eax
   104de:	89 c2                	mov    %eax,%edx
   104e0:	ec                   	in     (%dx),%al
   104e1:	88 45 ff             	mov    %al,-0x1(%ebp)
    //"d"表示使用通用寄存器EDX来传递输入操作数
    //"a"表示将结果存储在寄存器EAX
    return ret;
   104e4:	0f b6 45 ff          	movzbl -0x1(%ebp),%eax
}
   104e8:	c9                   	leave  
   104e9:	c3                   	ret    

000104ea <outb>:
static inline uint16_t inw(uint16_t port){
    uint16_t ret;
    __asm__ __volatile__("in %1, %0" : "=a" (ret) : "dN" (port));
    return ret;
}
static inline void outb(uint16_t port, uint8_t val){
   104ea:	55                   	push   %ebp
   104eb:	89 e5                	mov    %esp,%ebp
   104ed:	83 ec 08             	sub    $0x8,%esp
   104f0:	8b 55 08             	mov    0x8(%ebp),%edx
   104f3:	8b 45 0c             	mov    0xc(%ebp),%eax
   104f6:	66 89 55 fc          	mov    %dx,-0x4(%ebp)
   104fa:	88 45 f8             	mov    %al,-0x8(%ebp)
    __asm__ __volatile__("outb %[v],%[p]" : : [v]"a"(val), [p]"d"(port));
   104fd:	0f b6 45 f8          	movzbl -0x8(%ebp),%eax
   10501:	0f b7 55 fc          	movzwl -0x4(%ebp),%edx
   10505:	ee                   	out    %al,(%dx)
}
   10506:	90                   	nop
   10507:	c9                   	leave  
   10508:	c3                   	ret    

00010509 <cli>:
static inline void cli(){
   10509:	55                   	push   %ebp
   1050a:	89 e5                	mov    %esp,%ebp
    __asm__ __volatile__("cli");
   1050c:	fa                   	cli    
}
   1050d:	90                   	nop
   1050e:	5d                   	pop    %ebp
   1050f:	c3                   	ret    

00010510 <sti>:
static inline void sti(){  
   10510:	55                   	push   %ebp
   10511:	89 e5                	mov    %esp,%ebp
    __asm__ __volatile__("sti");
   10513:	fb                   	sti    
}
   10514:	90                   	nop
   10515:	5d                   	pop    %ebp
   10516:	c3                   	ret    

00010517 <hlt>:
static inline void hlt(){
   10517:	55                   	push   %ebp
   10518:	89 e5                	mov    %esp,%ebp
    __asm__ __volatile__("hlt");
   1051a:	f4                   	hlt    
}
   1051b:	90                   	nop
   1051c:	5d                   	pop    %ebp
   1051d:	c3                   	ret    

0001051e <lidt>:
    gdt.start15_0=start&0xffff;
    gdt.start31_16=(start>>16)&0xff;
    __asm__ __volatile__("lgdt %[g]" : : [g]"m"(gdt));
    
}
static inline void lidt(uint32_t start,uint32_t size){
   1051e:	55                   	push   %ebp
   1051f:	89 e5                	mov    %esp,%ebp
   10521:	83 ec 10             	sub    $0x10,%esp
    {
        uint16_t limit;
        uint16_t start15_0;
        uint16_t start31_16;
    }idt;
    idt.limit=size-1;   
   10524:	8b 45 0c             	mov    0xc(%ebp),%eax
   10527:	83 e8 01             	sub    $0x1,%eax
   1052a:	66 89 45 fa          	mov    %ax,-0x6(%ebp)
    idt.start15_0=start&0xffff;
   1052e:	8b 45 08             	mov    0x8(%ebp),%eax
   10531:	66 89 45 fc          	mov    %ax,-0x4(%ebp)
    idt.start31_16=(start>>16)&0xff;
   10535:	8b 45 08             	mov    0x8(%ebp),%eax
   10538:	c1 e8 10             	shr    $0x10,%eax
   1053b:	0f b6 c0             	movzbl %al,%eax
   1053e:	66 89 45 fe          	mov    %ax,-0x2(%ebp)
    __asm__ __volatile__("lidt %0"::"m"(idt));
   10542:	0f 01 5d fa          	lidtl  -0x6(%ebp)
}
   10546:	90                   	nop
   10547:	c9                   	leave  
   10548:	c3                   	ret    

00010549 <read_cr2>:
    return ret;
}
static inline void write_cr0(uint32_t val){
    __asm__ __volatile__("mov %[v], %%cr0" : : [v]"r"(val));
}
static inline uint32_t read_cr2(){
   10549:	55                   	push   %ebp
   1054a:	89 e5                	mov    %esp,%ebp
   1054c:	83 ec 10             	sub    $0x10,%esp
    uint32_t ret;
    __asm__ __volatile__("mov %%cr2, %[v]" : [v]"=r"(ret));
   1054f:	0f 20 d0             	mov    %cr2,%eax
   10552:	89 45 fc             	mov    %eax,-0x4(%ebp)
    return ret;
   10555:	8b 45 fc             	mov    -0x4(%ebp),%eax
}
   10558:	c9                   	leave  
   10559:	c3                   	ret    

0001055a <read_eflags>:
    __asm__ __volatile__("mov %[v], %%cr4" : : [v]"r"(val));
}
static inline void write_tr(uint16_t tss_sel){
    __asm__ __volatile__("ltr %%ax" : : "a"(tss_sel));
}
static inline uint32_t read_eflags(){
   1055a:	55                   	push   %ebp
   1055b:	89 e5                	mov    %esp,%ebp
   1055d:	83 ec 10             	sub    $0x10,%esp
    //标志寄存器和其他寄存器不太一样不能直接通过mov指令来读取
    uint32_t ret;
    __asm__ __volatile__("pushfl; popl %%eax" : "=a"(ret));
   10560:	9c                   	pushf  
   10561:	58                   	pop    %eax
   10562:	89 45 fc             	mov    %eax,-0x4(%ebp)
    return ret;
   10565:	8b 45 fc             	mov    -0x4(%ebp),%eax
}
   10568:	c9                   	leave  
   10569:	c3                   	ret    

0001056a <write_eflags>:
static inline void write_eflags(uint32_t val){
   1056a:	55                   	push   %ebp
   1056b:	89 e5                	mov    %esp,%ebp
    __asm__ __volatile__("pushl %%eax; popfl" : : "a"(val));
   1056d:	8b 45 08             	mov    0x8(%ebp),%eax
   10570:	50                   	push   %eax
   10571:	9d                   	popf   
}
   10572:	90                   	nop
   10573:	5d                   	pop    %ebp
   10574:	c3                   	ret    

00010575 <dump_core_regs>:
#include "tools/log.h"
#include "os_cfg.h"
#define IDT_TABLE_NR 128
static gate_desc_t idt_table[IDT_TABLE_NR];

static void dump_core_regs(exception_frame_t*frame){
   10575:	55                   	push   %ebp
   10576:	89 e5                	mov    %esp,%ebp
   10578:	57                   	push   %edi
   10579:	56                   	push   %esi
   1057a:	53                   	push   %ebx
   1057b:	83 ec 1c             	sub    $0x1c,%esp
    uint32_t esp,ss;
    if(frame->cs&0x7){
   1057e:	8b 45 08             	mov    0x8(%ebp),%eax
   10581:	8b 40 3c             	mov    0x3c(%eax),%eax
   10584:	83 e0 07             	and    $0x7,%eax
   10587:	85 c0                	test   %eax,%eax
   10589:	74 14                	je     1059f <dump_core_regs+0x2a>
        ss=frame->ds;
   1058b:	8b 45 08             	mov    0x8(%ebp),%eax
   1058e:	8b 40 0c             	mov    0xc(%eax),%eax
   10591:	89 45 e0             	mov    %eax,-0x20(%ebp)
        esp=frame->esp;
   10594:	8b 45 08             	mov    0x8(%ebp),%eax
   10597:	8b 40 1c             	mov    0x1c(%eax),%eax
   1059a:	89 45 e4             	mov    %eax,-0x1c(%ebp)
   1059d:	eb 12                	jmp    105b1 <dump_core_regs+0x3c>
    }else{
        ss=frame->ss3;
   1059f:	8b 45 08             	mov    0x8(%ebp),%eax
   105a2:	8b 40 48             	mov    0x48(%eax),%eax
   105a5:	89 45 e0             	mov    %eax,-0x20(%ebp)
        esp=frame->esp3;
   105a8:	8b 45 08             	mov    0x8(%ebp),%eax
   105ab:	8b 40 44             	mov    0x44(%eax),%eax
   105ae:	89 45 e4             	mov    %eax,-0x1c(%ebp)
    }
    log_printf("IRQ:%d,error code:%d.",frame->num,frame->error_code);
   105b1:	8b 45 08             	mov    0x8(%ebp),%eax
   105b4:	8b 50 34             	mov    0x34(%eax),%edx
   105b7:	8b 45 08             	mov    0x8(%ebp),%eax
   105ba:	8b 40 30             	mov    0x30(%eax),%eax
   105bd:	83 ec 04             	sub    $0x4,%esp
   105c0:	52                   	push   %edx
   105c1:	50                   	push   %eax
   105c2:	68 54 24 01 00       	push   $0x12454
   105c7:	e8 3f 11 00 00       	call   1170b <log_printf>
   105cc:	83 c4 10             	add    $0x10,%esp
    log_printf("CS:%d\nDS:%d\nES:%d\nSS:%d\nFS:%d\nGS:%d",frame->cs,frame->ds,frame->es,frame->ds,frame->fs,frame->gs);
   105cf:	8b 45 08             	mov    0x8(%ebp),%eax
   105d2:	8b 38                	mov    (%eax),%edi
   105d4:	8b 45 08             	mov    0x8(%ebp),%eax
   105d7:	8b 70 04             	mov    0x4(%eax),%esi
   105da:	8b 45 08             	mov    0x8(%ebp),%eax
   105dd:	8b 58 0c             	mov    0xc(%eax),%ebx
   105e0:	8b 45 08             	mov    0x8(%ebp),%eax
   105e3:	8b 48 08             	mov    0x8(%eax),%ecx
   105e6:	8b 45 08             	mov    0x8(%ebp),%eax
   105e9:	8b 50 0c             	mov    0xc(%eax),%edx
   105ec:	8b 45 08             	mov    0x8(%ebp),%eax
   105ef:	8b 40 3c             	mov    0x3c(%eax),%eax
   105f2:	83 ec 04             	sub    $0x4,%esp
   105f5:	57                   	push   %edi
   105f6:	56                   	push   %esi
   105f7:	53                   	push   %ebx
   105f8:	51                   	push   %ecx
   105f9:	52                   	push   %edx
   105fa:	50                   	push   %eax
   105fb:	68 6c 24 01 00       	push   $0x1246c
   10600:	e8 06 11 00 00       	call   1170b <log_printf>
   10605:	83 c4 20             	add    $0x20,%esp
    log_printf("EAX:0x%x\n",frame->eax);
   10608:	8b 45 08             	mov    0x8(%ebp),%eax
   1060b:	8b 40 2c             	mov    0x2c(%eax),%eax
   1060e:	83 ec 08             	sub    $0x8,%esp
   10611:	50                   	push   %eax
   10612:	68 90 24 01 00       	push   $0x12490
   10617:	e8 ef 10 00 00       	call   1170b <log_printf>
   1061c:	83 c4 10             	add    $0x10,%esp
    log_printf("EBX:0x%x\n",frame->ebx);
   1061f:	8b 45 08             	mov    0x8(%ebp),%eax
   10622:	8b 40 20             	mov    0x20(%eax),%eax
   10625:	83 ec 08             	sub    $0x8,%esp
   10628:	50                   	push   %eax
   10629:	68 9a 24 01 00       	push   $0x1249a
   1062e:	e8 d8 10 00 00       	call   1170b <log_printf>
   10633:	83 c4 10             	add    $0x10,%esp
    log_printf("ECX:0x%x\n",frame->ecx);
   10636:	8b 45 08             	mov    0x8(%ebp),%eax
   10639:	8b 40 28             	mov    0x28(%eax),%eax
   1063c:	83 ec 08             	sub    $0x8,%esp
   1063f:	50                   	push   %eax
   10640:	68 a4 24 01 00       	push   $0x124a4
   10645:	e8 c1 10 00 00       	call   1170b <log_printf>
   1064a:	83 c4 10             	add    $0x10,%esp
    log_printf("EDX:0x%x\n",frame->edx);
   1064d:	8b 45 08             	mov    0x8(%ebp),%eax
   10650:	8b 40 24             	mov    0x24(%eax),%eax
   10653:	83 ec 08             	sub    $0x8,%esp
   10656:	50                   	push   %eax
   10657:	68 ae 24 01 00       	push   $0x124ae
   1065c:	e8 aa 10 00 00       	call   1170b <log_printf>
   10661:	83 c4 10             	add    $0x10,%esp
    log_printf("ESI:0x%x\n",frame->esi);
   10664:	8b 45 08             	mov    0x8(%ebp),%eax
   10667:	8b 40 14             	mov    0x14(%eax),%eax
   1066a:	83 ec 08             	sub    $0x8,%esp
   1066d:	50                   	push   %eax
   1066e:	68 b8 24 01 00       	push   $0x124b8
   10673:	e8 93 10 00 00       	call   1170b <log_printf>
   10678:	83 c4 10             	add    $0x10,%esp
    log_printf("EDI:0x%x\n",frame->edi);
   1067b:	8b 45 08             	mov    0x8(%ebp),%eax
   1067e:	8b 40 10             	mov    0x10(%eax),%eax
   10681:	83 ec 08             	sub    $0x8,%esp
   10684:	50                   	push   %eax
   10685:	68 c2 24 01 00       	push   $0x124c2
   1068a:	e8 7c 10 00 00       	call   1170b <log_printf>
   1068f:	83 c4 10             	add    $0x10,%esp
    log_printf("EBP:0x%x\n",frame->ebp);
   10692:	8b 45 08             	mov    0x8(%ebp),%eax
   10695:	8b 40 18             	mov    0x18(%eax),%eax
   10698:	83 ec 08             	sub    $0x8,%esp
   1069b:	50                   	push   %eax
   1069c:	68 cc 24 01 00       	push   $0x124cc
   106a1:	e8 65 10 00 00       	call   1170b <log_printf>
   106a6:	83 c4 10             	add    $0x10,%esp
    log_printf("ESP:0x%x\n",esp);
   106a9:	83 ec 08             	sub    $0x8,%esp
   106ac:	ff 75 e4             	pushl  -0x1c(%ebp)
   106af:	68 d6 24 01 00       	push   $0x124d6
   106b4:	e8 52 10 00 00       	call   1170b <log_printf>
   106b9:	83 c4 10             	add    $0x10,%esp
    log_printf("EIP:0x%x\n",frame->eip);
   106bc:	8b 45 08             	mov    0x8(%ebp),%eax
   106bf:	8b 40 38             	mov    0x38(%eax),%eax
   106c2:	83 ec 08             	sub    $0x8,%esp
   106c5:	50                   	push   %eax
   106c6:	68 e0 24 01 00       	push   $0x124e0
   106cb:	e8 3b 10 00 00       	call   1170b <log_printf>
   106d0:	83 c4 10             	add    $0x10,%esp
    log_printf("EFLAGS:0x%x\n",frame->eflags);
   106d3:	8b 45 08             	mov    0x8(%ebp),%eax
   106d6:	8b 40 40             	mov    0x40(%eax),%eax
   106d9:	83 ec 08             	sub    $0x8,%esp
   106dc:	50                   	push   %eax
   106dd:	68 ea 24 01 00       	push   $0x124ea
   106e2:	e8 24 10 00 00       	call   1170b <log_printf>
   106e7:	83 c4 10             	add    $0x10,%esp
}
   106ea:	90                   	nop
   106eb:	8d 65 f4             	lea    -0xc(%ebp),%esp
   106ee:	5b                   	pop    %ebx
   106ef:	5e                   	pop    %esi
   106f0:	5f                   	pop    %edi
   106f1:	5d                   	pop    %ebp
   106f2:	c3                   	ret    

000106f3 <do_default_handler>:
static void do_default_handler(exception_frame_t*frame,const char*message){
   106f3:	55                   	push   %ebp
   106f4:	89 e5                	mov    %esp,%ebp
   106f6:	83 ec 08             	sub    $0x8,%esp
    log_printf("----------------");
   106f9:	83 ec 0c             	sub    $0xc,%esp
   106fc:	68 f7 24 01 00       	push   $0x124f7
   10701:	e8 05 10 00 00       	call   1170b <log_printf>
   10706:	83 c4 10             	add    $0x10,%esp
    log_printf("IRQ/Exception happend:%s.",message);
   10709:	83 ec 08             	sub    $0x8,%esp
   1070c:	ff 75 0c             	pushl  0xc(%ebp)
   1070f:	68 08 25 01 00       	push   $0x12508
   10714:	e8 f2 0f 00 00       	call   1170b <log_printf>
   10719:	83 c4 10             	add    $0x10,%esp

    dump_core_regs(frame);
   1071c:	83 ec 0c             	sub    $0xc,%esp
   1071f:	ff 75 08             	pushl  0x8(%ebp)
   10722:	e8 4e fe ff ff       	call   10575 <dump_core_regs>
   10727:	83 c4 10             	add    $0x10,%esp
    log_printf("----------------");
   1072a:	83 ec 0c             	sub    $0xc,%esp
   1072d:	68 f7 24 01 00       	push   $0x124f7
   10732:	e8 d4 0f 00 00       	call   1170b <log_printf>
   10737:	83 c4 10             	add    $0x10,%esp
    for(;;){
        hlt();
   1073a:	e8 d8 fd ff ff       	call   10517 <hlt>
    }
   1073f:	eb f9                	jmp    1073a <do_default_handler+0x47>

00010741 <do_handler_unknown>:
}
void do_handler_unknown(exception_frame_t*frame){
   10741:	55                   	push   %ebp
   10742:	89 e5                	mov    %esp,%ebp
   10744:	83 ec 08             	sub    $0x8,%esp
    do_default_handler(frame,"Unknown exception happend.");
   10747:	83 ec 08             	sub    $0x8,%esp
   1074a:	68 22 25 01 00       	push   $0x12522
   1074f:	ff 75 08             	pushl  0x8(%ebp)
   10752:	e8 9c ff ff ff       	call   106f3 <do_default_handler>
   10757:	83 c4 10             	add    $0x10,%esp
}
   1075a:	90                   	nop
   1075b:	c9                   	leave  
   1075c:	c3                   	ret    

0001075d <do_handler_driver>:
void do_handler_driver(exception_frame_t*frame){
   1075d:	55                   	push   %ebp
   1075e:	89 e5                	mov    %esp,%ebp
   10760:	83 ec 08             	sub    $0x8,%esp
    do_default_handler(frame,"Driver exception happend.");
   10763:	83 ec 08             	sub    $0x8,%esp
   10766:	68 3d 25 01 00       	push   $0x1253d
   1076b:	ff 75 08             	pushl  0x8(%ebp)
   1076e:	e8 80 ff ff ff       	call   106f3 <do_default_handler>
   10773:	83 c4 10             	add    $0x10,%esp
}
   10776:	90                   	nop
   10777:	c9                   	leave  
   10778:	c3                   	ret    

00010779 <do_handler_Debug>:
void do_handler_Debug(exception_frame_t*frame){
   10779:	55                   	push   %ebp
   1077a:	89 e5                	mov    %esp,%ebp
   1077c:	83 ec 08             	sub    $0x8,%esp
    do_default_handler(frame,"Debug exception happend.");
   1077f:	83 ec 08             	sub    $0x8,%esp
   10782:	68 57 25 01 00       	push   $0x12557
   10787:	ff 75 08             	pushl  0x8(%ebp)
   1078a:	e8 64 ff ff ff       	call   106f3 <do_default_handler>
   1078f:	83 c4 10             	add    $0x10,%esp
}
   10792:	90                   	nop
   10793:	c9                   	leave  
   10794:	c3                   	ret    

00010795 <do_handler_NMI>:
void do_handler_NMI(exception_frame_t*frame){
   10795:	55                   	push   %ebp
   10796:	89 e5                	mov    %esp,%ebp
   10798:	83 ec 08             	sub    $0x8,%esp
    do_default_handler(frame,"NMI exception happend.");
   1079b:	83 ec 08             	sub    $0x8,%esp
   1079e:	68 70 25 01 00       	push   $0x12570
   107a3:	ff 75 08             	pushl  0x8(%ebp)
   107a6:	e8 48 ff ff ff       	call   106f3 <do_default_handler>
   107ab:	83 c4 10             	add    $0x10,%esp
}
   107ae:	90                   	nop
   107af:	c9                   	leave  
   107b0:	c3                   	ret    

000107b1 <do_handler_breakpoint>:
void do_handler_breakpoint(exception_frame_t*frame){
   107b1:	55                   	push   %ebp
   107b2:	89 e5                	mov    %esp,%ebp
   107b4:	83 ec 08             	sub    $0x8,%esp
    do_default_handler(frame,"Breakpoint exception happend.");
   107b7:	83 ec 08             	sub    $0x8,%esp
   107ba:	68 87 25 01 00       	push   $0x12587
   107bf:	ff 75 08             	pushl  0x8(%ebp)
   107c2:	e8 2c ff ff ff       	call   106f3 <do_default_handler>
   107c7:	83 c4 10             	add    $0x10,%esp
}
   107ca:	90                   	nop
   107cb:	c9                   	leave  
   107cc:	c3                   	ret    

000107cd <do_handler_overflow>:
void do_handler_overflow(exception_frame_t*frame){
   107cd:	55                   	push   %ebp
   107ce:	89 e5                	mov    %esp,%ebp
   107d0:	83 ec 08             	sub    $0x8,%esp
    do_default_handler(frame,"Overflow exception happend.");
   107d3:	83 ec 08             	sub    $0x8,%esp
   107d6:	68 a5 25 01 00       	push   $0x125a5
   107db:	ff 75 08             	pushl  0x8(%ebp)
   107de:	e8 10 ff ff ff       	call   106f3 <do_default_handler>
   107e3:	83 c4 10             	add    $0x10,%esp
}
   107e6:	90                   	nop
   107e7:	c9                   	leave  
   107e8:	c3                   	ret    

000107e9 <do_handler_bound_range>:
void do_handler_bound_range(exception_frame_t*frame){
   107e9:	55                   	push   %ebp
   107ea:	89 e5                	mov    %esp,%ebp
   107ec:	83 ec 08             	sub    $0x8,%esp
    do_default_handler(frame,"Bound range exception happend.");
   107ef:	83 ec 08             	sub    $0x8,%esp
   107f2:	68 c4 25 01 00       	push   $0x125c4
   107f7:	ff 75 08             	pushl  0x8(%ebp)
   107fa:	e8 f4 fe ff ff       	call   106f3 <do_default_handler>
   107ff:	83 c4 10             	add    $0x10,%esp
}
   10802:	90                   	nop
   10803:	c9                   	leave  
   10804:	c3                   	ret    

00010805 <do_handler_invalid_opcode>:
void do_handler_invalid_opcode(exception_frame_t*frame){
   10805:	55                   	push   %ebp
   10806:	89 e5                	mov    %esp,%ebp
   10808:	83 ec 08             	sub    $0x8,%esp
    do_default_handler(frame,"Invalid opcode exception happend.");
   1080b:	83 ec 08             	sub    $0x8,%esp
   1080e:	68 e4 25 01 00       	push   $0x125e4
   10813:	ff 75 08             	pushl  0x8(%ebp)
   10816:	e8 d8 fe ff ff       	call   106f3 <do_default_handler>
   1081b:	83 c4 10             	add    $0x10,%esp
}
   1081e:	90                   	nop
   1081f:	c9                   	leave  
   10820:	c3                   	ret    

00010821 <do_handler_device_unavailable>:
void do_handler_device_unavailable(exception_frame_t*frame){
   10821:	55                   	push   %ebp
   10822:	89 e5                	mov    %esp,%ebp
   10824:	83 ec 08             	sub    $0x8,%esp
    do_default_handler(frame,"Device unavailable exception happend.");
   10827:	83 ec 08             	sub    $0x8,%esp
   1082a:	68 08 26 01 00       	push   $0x12608
   1082f:	ff 75 08             	pushl  0x8(%ebp)
   10832:	e8 bc fe ff ff       	call   106f3 <do_default_handler>
   10837:	83 c4 10             	add    $0x10,%esp
}
   1083a:	90                   	nop
   1083b:	c9                   	leave  
   1083c:	c3                   	ret    

0001083d <do_handler_double_fault>:
void do_handler_double_fault(exception_frame_t*frame){
   1083d:	55                   	push   %ebp
   1083e:	89 e5                	mov    %esp,%ebp
   10840:	83 ec 08             	sub    $0x8,%esp
    do_default_handler (frame,"Double fault exception happend.");
   10843:	83 ec 08             	sub    $0x8,%esp
   10846:	68 30 26 01 00       	push   $0x12630
   1084b:	ff 75 08             	pushl  0x8(%ebp)
   1084e:	e8 a0 fe ff ff       	call   106f3 <do_default_handler>
   10853:	83 c4 10             	add    $0x10,%esp
}
   10856:	90                   	nop
   10857:	c9                   	leave  
   10858:	c3                   	ret    

00010859 <do_handler_invalid_tss>:
void do_handler_invalid_tss(exception_frame_t*frame){
   10859:	55                   	push   %ebp
   1085a:	89 e5                	mov    %esp,%ebp
   1085c:	83 ec 08             	sub    $0x8,%esp
    do_default_handler(frame,"Invalid TSS exception happend.");
   1085f:	83 ec 08             	sub    $0x8,%esp
   10862:	68 50 26 01 00       	push   $0x12650
   10867:	ff 75 08             	pushl  0x8(%ebp)
   1086a:	e8 84 fe ff ff       	call   106f3 <do_default_handler>
   1086f:	83 c4 10             	add    $0x10,%esp
}
   10872:	90                   	nop
   10873:	c9                   	leave  
   10874:	c3                   	ret    

00010875 <do_handler_segment_not_present>:
void do_handler_segment_not_present(exception_frame_t*frame){
   10875:	55                   	push   %ebp
   10876:	89 e5                	mov    %esp,%ebp
   10878:	83 ec 08             	sub    $0x8,%esp
    do_default_handler(frame,"Segment not present exception happend.");
   1087b:	83 ec 08             	sub    $0x8,%esp
   1087e:	68 70 26 01 00       	push   $0x12670
   10883:	ff 75 08             	pushl  0x8(%ebp)
   10886:	e8 68 fe ff ff       	call   106f3 <do_default_handler>
   1088b:	83 c4 10             	add    $0x10,%esp
}
   1088e:	90                   	nop
   1088f:	c9                   	leave  
   10890:	c3                   	ret    

00010891 <do_handler_stack_segment_fault>:
void do_handler_stack_segment_fault(exception_frame_t*frame){
   10891:	55                   	push   %ebp
   10892:	89 e5                	mov    %esp,%ebp
   10894:	83 ec 08             	sub    $0x8,%esp
    do_default_handler(frame,"Stack segment fault exception happend.");
   10897:	83 ec 08             	sub    $0x8,%esp
   1089a:	68 98 26 01 00       	push   $0x12698
   1089f:	ff 75 08             	pushl  0x8(%ebp)
   108a2:	e8 4c fe ff ff       	call   106f3 <do_default_handler>
   108a7:	83 c4 10             	add    $0x10,%esp
}
   108aa:	90                   	nop
   108ab:	c9                   	leave  
   108ac:	c3                   	ret    

000108ad <do_handler_general_protection>:
void do_handler_general_protection(exception_frame_t*frame){
   108ad:	55                   	push   %ebp
   108ae:	89 e5                	mov    %esp,%ebp
   108b0:	83 ec 08             	sub    $0x8,%esp

    log_printf("---------------------------");
   108b3:	83 ec 0c             	sub    $0xc,%esp
   108b6:	68 bf 26 01 00       	push   $0x126bf
   108bb:	e8 4b 0e 00 00       	call   1170b <log_printf>
   108c0:	83 c4 10             	add    $0x10,%esp
    log_printf("IRQ/Exception happened:General Protection");
   108c3:	83 ec 0c             	sub    $0xc,%esp
   108c6:	68 dc 26 01 00       	push   $0x126dc
   108cb:	e8 3b 0e 00 00       	call   1170b <log_printf>
   108d0:	83 c4 10             	add    $0x10,%esp
    do_default_handler(frame,"General protection exception happend.");
   108d3:	83 ec 08             	sub    $0x8,%esp
   108d6:	68 08 27 01 00       	push   $0x12708
   108db:	ff 75 08             	pushl  0x8(%ebp)
   108de:	e8 10 fe ff ff       	call   106f3 <do_default_handler>
   108e3:	83 c4 10             	add    $0x10,%esp
        位1-2：表明导致异常的段选择子的描述符类型（0表示数据段，1表示代码段，2表示任务门描述符）。
        位3-4：表明访问段或门时的特权级（CPL）。
        位5：段描述符的存储（0为局部描述符表（LDT），1为全局描述符表（GDT））。
        位6-15：段或门选择子索引。
    */
    if(frame->error_code & ERR_EXT){
   108e6:	8b 45 08             	mov    0x8(%ebp),%eax
   108e9:	8b 40 34             	mov    0x34(%eax),%eax
   108ec:	83 e0 01             	and    $0x1,%eax
   108ef:	85 c0                	test   %eax,%eax
   108f1:	74 12                	je     10905 <do_handler_general_protection+0x58>
        log_printf("the exception occurred during delivery of an "
   108f3:	83 ec 0c             	sub    $0xc,%esp
   108f6:	68 30 27 01 00       	push   $0x12730
   108fb:	e8 0b 0e 00 00       	call   1170b <log_printf>
   10900:	83 c4 10             	add    $0x10,%esp
   10903:	eb 10                	jmp    10915 <do_handler_general_protection+0x68>
                "event external to the program, such as an interrupt"
                "or an earlier exception.");
    }else{
        log_printf("the exception occurred during delivery of a"
   10905:	83 ec 0c             	sub    $0xc,%esp
   10908:	68 ac 27 01 00       	push   $0x127ac
   1090d:	e8 f9 0d 00 00       	call   1170b <log_printf>
   10912:	83 c4 10             	add    $0x10,%esp
                    "software interrupt (INT n, INT3, or INTO).");
    }
    if (frame->error_code & ERR_IDT) {
   10915:	8b 45 08             	mov    0x8(%ebp),%eax
   10918:	8b 40 34             	mov    0x34(%eax),%eax
   1091b:	83 e0 02             	and    $0x2,%eax
   1091e:	85 c0                	test   %eax,%eax
   10920:	74 12                	je     10934 <do_handler_general_protection+0x87>
        log_printf("the index portion of the error code refers "
   10922:	83 ec 0c             	sub    $0xc,%esp
   10925:	68 04 28 01 00       	push   $0x12804
   1092a:	e8 dc 0d 00 00       	call   1170b <log_printf>
   1092f:	83 c4 10             	add    $0x10,%esp
   10932:	eb 10                	jmp    10944 <do_handler_general_protection+0x97>
                    "to a gate descriptor in the IDT");
    } else {
        log_printf("the index refers to a descriptor in the GDT");
   10934:	83 ec 0c             	sub    $0xc,%esp
   10937:	68 50 28 01 00       	push   $0x12850
   1093c:	e8 ca 0d 00 00       	call   1170b <log_printf>
   10941:	83 c4 10             	add    $0x10,%esp
    }
    log_printf("segment index: %d", frame->error_code & 0xFFF8);
   10944:	8b 45 08             	mov    0x8(%ebp),%eax
   10947:	8b 40 34             	mov    0x34(%eax),%eax
   1094a:	25 f8 ff 00 00       	and    $0xfff8,%eax
   1094f:	83 ec 08             	sub    $0x8,%esp
   10952:	50                   	push   %eax
   10953:	68 7c 28 01 00       	push   $0x1287c
   10958:	e8 ae 0d 00 00       	call   1170b <log_printf>
   1095d:	83 c4 10             	add    $0x10,%esp
    dump_core_regs(frame);
   10960:	83 ec 0c             	sub    $0xc,%esp
   10963:	ff 75 08             	pushl  0x8(%ebp)
   10966:	e8 0a fc ff ff       	call   10575 <dump_core_regs>
   1096b:	83 c4 10             	add    $0x10,%esp
    while(1){
        hlt();
   1096e:	e8 a4 fb ff ff       	call   10517 <hlt>
    }
   10973:	eb f9                	jmp    1096e <do_handler_general_protection+0xc1>

00010975 <do_handler_page_fault>:
}
void do_handler_page_fault(exception_frame_t*frame){
   10975:	55                   	push   %ebp
   10976:	89 e5                	mov    %esp,%ebp
   10978:	83 ec 08             	sub    $0x8,%esp
    log_printf("--------------------------------");
   1097b:	83 ec 0c             	sub    $0xc,%esp
   1097e:	68 90 28 01 00       	push   $0x12890
   10983:	e8 83 0d 00 00       	call   1170b <log_printf>
   10988:	83 c4 10             	add    $0x10,%esp
    log_printf("IRQ/Exception happend: Page fault.");
   1098b:	83 ec 0c             	sub    $0xc,%esp
   1098e:	68 b4 28 01 00       	push   $0x128b4
   10993:	e8 73 0d 00 00       	call   1170b <log_printf>
   10998:	83 c4 10             	add    $0x10,%esp
    if (frame->error_code & ERR_PAGE_P) {
   1099b:	8b 45 08             	mov    0x8(%ebp),%eax
   1099e:	8b 40 34             	mov    0x34(%eax),%eax
   109a1:	83 e0 01             	and    $0x1,%eax
   109a4:	85 c0                	test   %eax,%eax
   109a6:	74 18                	je     109c0 <do_handler_page_fault+0x4b>
        log_printf("\tpage-level protection violation: 0x%x.", read_cr2());
   109a8:	e8 9c fb ff ff       	call   10549 <read_cr2>
   109ad:	83 ec 08             	sub    $0x8,%esp
   109b0:	50                   	push   %eax
   109b1:	68 d8 28 01 00       	push   $0x128d8
   109b6:	e8 50 0d 00 00       	call   1170b <log_printf>
   109bb:	83 c4 10             	add    $0x10,%esp
   109be:	eb 16                	jmp    109d6 <do_handler_page_fault+0x61>
    } else {
         log_printf("\tPage doesn't present 0x%x", read_cr2());
   109c0:	e8 84 fb ff ff       	call   10549 <read_cr2>
   109c5:	83 ec 08             	sub    $0x8,%esp
   109c8:	50                   	push   %eax
   109c9:	68 00 29 01 00       	push   $0x12900
   109ce:	e8 38 0d 00 00       	call   1170b <log_printf>
   109d3:	83 c4 10             	add    $0x10,%esp
   }
    
    if (frame->error_code & ERR_PAGE_WR) {
   109d6:	8b 45 08             	mov    0x8(%ebp),%eax
   109d9:	8b 40 34             	mov    0x34(%eax),%eax
   109dc:	83 e0 02             	and    $0x2,%eax
   109df:	85 c0                	test   %eax,%eax
   109e1:	74 12                	je     109f5 <do_handler_page_fault+0x80>
        log_printf("\tThe access causing the fault was a read.");
   109e3:	83 ec 0c             	sub    $0xc,%esp
   109e6:	68 1c 29 01 00       	push   $0x1291c
   109eb:	e8 1b 0d 00 00       	call   1170b <log_printf>
   109f0:	83 c4 10             	add    $0x10,%esp
   109f3:	eb 10                	jmp    10a05 <do_handler_page_fault+0x90>
    } else {
        log_printf("\tThe access causing the fault was a write.");
   109f5:	83 ec 0c             	sub    $0xc,%esp
   109f8:	68 48 29 01 00       	push   $0x12948
   109fd:	e8 09 0d 00 00       	call   1170b <log_printf>
   10a02:	83 c4 10             	add    $0x10,%esp
    }
    
    if (frame->error_code & ERR_PAGE_US) {
   10a05:	8b 45 08             	mov    0x8(%ebp),%eax
   10a08:	8b 40 34             	mov    0x34(%eax),%eax
   10a0b:	83 e0 02             	and    $0x2,%eax
   10a0e:	85 c0                	test   %eax,%eax
   10a10:	74 12                	je     10a24 <do_handler_page_fault+0xaf>
        log_printf("\tA supervisor-mode access caused the fault.");
   10a12:	83 ec 0c             	sub    $0xc,%esp
   10a15:	68 74 29 01 00       	push   $0x12974
   10a1a:	e8 ec 0c 00 00       	call   1170b <log_printf>
   10a1f:	83 c4 10             	add    $0x10,%esp
   10a22:	eb 10                	jmp    10a34 <do_handler_page_fault+0xbf>
    } else {
        log_printf("\tA user-mode access caused the fault.");
   10a24:	83 ec 0c             	sub    $0xc,%esp
   10a27:	68 a0 29 01 00       	push   $0x129a0
   10a2c:	e8 da 0c 00 00       	call   1170b <log_printf>
   10a31:	83 c4 10             	add    $0x10,%esp
    }

    dump_core_regs(frame);
   10a34:	83 ec 0c             	sub    $0xc,%esp
   10a37:	ff 75 08             	pushl  0x8(%ebp)
   10a3a:	e8 36 fb ff ff       	call   10575 <dump_core_regs>
   10a3f:	83 c4 10             	add    $0x10,%esp
    while (1) {
        hlt();
   10a42:	e8 d0 fa ff ff       	call   10517 <hlt>
    }
   10a47:	eb f9                	jmp    10a42 <do_handler_page_fault+0xcd>

00010a49 <do_handler_fpu_error>:
}

void do_handler_fpu_error(exception_frame_t*frame){
   10a49:	55                   	push   %ebp
   10a4a:	89 e5                	mov    %esp,%ebp
   10a4c:	83 ec 08             	sub    $0x8,%esp
    do_default_handler(frame,"FPU error exception happend.");
   10a4f:	83 ec 08             	sub    $0x8,%esp
   10a52:	68 c6 29 01 00       	push   $0x129c6
   10a57:	ff 75 08             	pushl  0x8(%ebp)
   10a5a:	e8 94 fc ff ff       	call   106f3 <do_default_handler>
   10a5f:	83 c4 10             	add    $0x10,%esp
}
   10a62:	90                   	nop
   10a63:	c9                   	leave  
   10a64:	c3                   	ret    

00010a65 <do_handler_alignment_check>:
void do_handler_alignment_check(exception_frame_t*frame){
   10a65:	55                   	push   %ebp
   10a66:	89 e5                	mov    %esp,%ebp
   10a68:	83 ec 08             	sub    $0x8,%esp
    do_default_handler(frame,"Alignment check exception happend.");
   10a6b:	83 ec 08             	sub    $0x8,%esp
   10a6e:	68 e4 29 01 00       	push   $0x129e4
   10a73:	ff 75 08             	pushl  0x8(%ebp)
   10a76:	e8 78 fc ff ff       	call   106f3 <do_default_handler>
   10a7b:	83 c4 10             	add    $0x10,%esp
}
   10a7e:	90                   	nop
   10a7f:	c9                   	leave  
   10a80:	c3                   	ret    

00010a81 <do_handler_machine_check>:
void do_handler_machine_check(exception_frame_t*frame){
   10a81:	55                   	push   %ebp
   10a82:	89 e5                	mov    %esp,%ebp
   10a84:	83 ec 08             	sub    $0x8,%esp
    do_default_handler(frame,"Machine check exception happend.");
   10a87:	83 ec 08             	sub    $0x8,%esp
   10a8a:	68 08 2a 01 00       	push   $0x12a08
   10a8f:	ff 75 08             	pushl  0x8(%ebp)
   10a92:	e8 5c fc ff ff       	call   106f3 <do_default_handler>
   10a97:	83 c4 10             	add    $0x10,%esp
}
   10a9a:	90                   	nop
   10a9b:	c9                   	leave  
   10a9c:	c3                   	ret    

00010a9d <do_handler_smd_exception>:
void do_handler_smd_exception(exception_frame_t*frame){
   10a9d:	55                   	push   %ebp
   10a9e:	89 e5                	mov    %esp,%ebp
   10aa0:	83 ec 08             	sub    $0x8,%esp
    do_default_handler(frame,"SMD exception happend.");
   10aa3:	83 ec 08             	sub    $0x8,%esp
   10aa6:	68 29 2a 01 00       	push   $0x12a29
   10aab:	ff 75 08             	pushl  0x8(%ebp)
   10aae:	e8 40 fc ff ff       	call   106f3 <do_default_handler>
   10ab3:	83 c4 10             	add    $0x10,%esp
}
   10ab6:	90                   	nop
   10ab7:	c9                   	leave  
   10ab8:	c3                   	ret    

00010ab9 <do_handler_virtual_exception>:
void do_handler_virtual_exception(exception_frame_t*frame){
   10ab9:	55                   	push   %ebp
   10aba:	89 e5                	mov    %esp,%ebp
   10abc:	83 ec 08             	sub    $0x8,%esp
    do_default_handler(frame,"Virtual exception happend.");
   10abf:	83 ec 08             	sub    $0x8,%esp
   10ac2:	68 40 2a 01 00       	push   $0x12a40
   10ac7:	ff 75 08             	pushl  0x8(%ebp)
   10aca:	e8 24 fc ff ff       	call   106f3 <do_default_handler>
   10acf:	83 c4 10             	add    $0x10,%esp
}
   10ad2:	90                   	nop
   10ad3:	c9                   	leave  
   10ad4:	c3                   	ret    

00010ad5 <init_pic>:
static void init_pic(void){
   10ad5:	55                   	push   %ebp
   10ad6:	89 e5                	mov    %esp,%ebp
    outb(PIC0_ICW1, PIC_ICW1_ALWAYS_1 | PIC_ICW1_ICW4);
   10ad8:	6a 11                	push   $0x11
   10ada:	6a 20                	push   $0x20
   10adc:	e8 09 fa ff ff       	call   104ea <outb>
   10ae1:	83 c4 08             	add    $0x8,%esp

    // 对应的中断号起始序号0x20
    outb(PIC0_ICW2, IRQ_PIC_START);
   10ae4:	6a 20                	push   $0x20
   10ae6:	6a 21                	push   $0x21
   10ae8:	e8 fd f9 ff ff       	call   104ea <outb>
   10aed:	83 c4 08             	add    $0x8,%esp

    // 主片IRQ2有从片
    outb(PIC0_ICW3, 1 << 2);
   10af0:	6a 04                	push   $0x4
   10af2:	6a 21                	push   $0x21
   10af4:	e8 f1 f9 ff ff       	call   104ea <outb>
   10af9:	83 c4 08             	add    $0x8,%esp

    // 普通全嵌套、非缓冲、非自动结束、8086模式
    outb(PIC0_ICW4, PIC_ICW4_8086);
   10afc:	6a 01                	push   $0x1
   10afe:	6a 21                	push   $0x21
   10b00:	e8 e5 f9 ff ff       	call   104ea <outb>
   10b05:	83 c4 08             	add    $0x8,%esp

    // 边缘触发，级联，需要配置icw4, 8086模式
    outb(PIC1_ICW1, PIC_ICW1_ICW4 | PIC_ICW1_ALWAYS_1);
   10b08:	6a 11                	push   $0x11
   10b0a:	68 a0 00 00 00       	push   $0xa0
   10b0f:	e8 d6 f9 ff ff       	call   104ea <outb>
   10b14:	83 c4 08             	add    $0x8,%esp

    // 起始中断序号，要加上8
    outb(PIC1_ICW2, IRQ_PIC_START + 8);
   10b17:	6a 28                	push   $0x28
   10b19:	68 a1 00 00 00       	push   $0xa1
   10b1e:	e8 c7 f9 ff ff       	call   104ea <outb>
   10b23:	83 c4 08             	add    $0x8,%esp

    // 没有从片，连接到主片的IRQ2上
    outb(PIC1_ICW3, 2);
   10b26:	6a 02                	push   $0x2
   10b28:	68 a1 00 00 00       	push   $0xa1
   10b2d:	e8 b8 f9 ff ff       	call   104ea <outb>
   10b32:	83 c4 08             	add    $0x8,%esp

    // 普通全嵌套、非缓冲、非自动结束、8086模式
    outb(PIC1_ICW4, PIC_ICW4_8086);
   10b35:	6a 01                	push   $0x1
   10b37:	68 a1 00 00 00       	push   $0xa1
   10b3c:	e8 a9 f9 ff ff       	call   104ea <outb>
   10b41:	83 c4 08             	add    $0x8,%esp

    // 禁止所有中断, 允许从PIC1传来的中断
    outb(PIC0_IMR, 0xFF & ~(1 << 2));
   10b44:	68 fb 00 00 00       	push   $0xfb
   10b49:	6a 21                	push   $0x21
   10b4b:	e8 9a f9 ff ff       	call   104ea <outb>
   10b50:	83 c4 08             	add    $0x8,%esp
    outb(PIC1_IMR, 0xFF);
   10b53:	68 ff 00 00 00       	push   $0xff
   10b58:	68 a1 00 00 00       	push   $0xa1
   10b5d:	e8 88 f9 ff ff       	call   104ea <outb>
   10b62:	83 c4 08             	add    $0x8,%esp
}
   10b65:	90                   	nop
   10b66:	c9                   	leave  
   10b67:	c3                   	ret    

00010b68 <pic_send_eoi>:

void pic_send_eoi(int irq_num){
   10b68:	55                   	push   %ebp
   10b69:	89 e5                	mov    %esp,%ebp
    irq_num-=IRQ_PIC_START;
   10b6b:	83 6d 08 20          	subl   $0x20,0x8(%ebp)
    if(irq_num>=8){
   10b6f:	83 7d 08 07          	cmpl   $0x7,0x8(%ebp)
   10b73:	7e 0f                	jle    10b84 <pic_send_eoi+0x1c>
        outb(PIC1_OCW2,PIC_OCW2_EOI);
   10b75:	6a 20                	push   $0x20
   10b77:	68 a0 00 00 00       	push   $0xa0
   10b7c:	e8 69 f9 ff ff       	call   104ea <outb>
   10b81:	83 c4 08             	add    $0x8,%esp

    }
    outb(PIC0_OCW2,PIC_OCW2_EOI);
   10b84:	6a 20                	push   $0x20
   10b86:	6a 20                	push   $0x20
   10b88:	e8 5d f9 ff ff       	call   104ea <outb>
   10b8d:	83 c4 08             	add    $0x8,%esp
}
   10b90:	90                   	nop
   10b91:	c9                   	leave  
   10b92:	c3                   	ret    

00010b93 <irq_install>:
int irq_install(int irq_num,irq_handler_t handler){
   10b93:	55                   	push   %ebp
   10b94:	89 e5                	mov    %esp,%ebp
   10b96:	83 ec 08             	sub    $0x8,%esp
    if(irq_num<0||irq_num>=IDT_TABLE_NR){
   10b99:	83 7d 08 00          	cmpl   $0x0,0x8(%ebp)
   10b9d:	78 06                	js     10ba5 <irq_install+0x12>
   10b9f:	83 7d 08 7f          	cmpl   $0x7f,0x8(%ebp)
   10ba3:	7e 07                	jle    10bac <irq_install+0x19>
        return -1;
   10ba5:	b8 ff ff ff ff       	mov    $0xffffffff,%eax
   10baa:	eb 25                	jmp    10bd1 <irq_install+0x3e>
    }
    gate_desc_set(idt_table+irq_num,KERNEL_SELECTOR_CS,(uint32_t)handler, 
   10bac:	8b 45 0c             	mov    0xc(%ebp),%eax
   10baf:	0f b7 c0             	movzwl %ax,%eax
   10bb2:	8b 55 08             	mov    0x8(%ebp),%edx
   10bb5:	c1 e2 03             	shl    $0x3,%edx
   10bb8:	81 c2 00 33 01 00    	add    $0x13300,%edx
   10bbe:	6a 00                	push   $0x0
   10bc0:	50                   	push   %eax
   10bc1:	6a 08                	push   $0x8
   10bc3:	52                   	push   %edx
   10bc4:	e8 ee f7 ff ff       	call   103b7 <gate_desc_set>
   10bc9:	83 c4 10             	add    $0x10,%esp
        GATE_P_PRESENT|GATE_DPL0|GATE_TYPE_IDT);
    return 0;
   10bcc:	b8 00 00 00 00       	mov    $0x0,%eax
}
   10bd1:	c9                   	leave  
   10bd2:	c3                   	ret    

00010bd3 <irq_init>:
void irq_init(){
   10bd3:	55                   	push   %ebp
   10bd4:	89 e5                	mov    %esp,%ebp
   10bd6:	83 ec 18             	sub    $0x18,%esp
    //安装中断描述符
    //如果不需要借助栈段传参的话可以直接安装在idt表中
    for(int i=0;i<IDT_TABLE_NR;i++){
   10bd9:	c7 45 f4 00 00 00 00 	movl   $0x0,-0xc(%ebp)
   10be0:	eb 26                	jmp    10c08 <irq_init+0x35>
        gate_desc_set(idt_table+i,KERNEL_SELECTOR_CS,(uint32_t)do_handler_unknown, 
   10be2:	b8 41 07 01 00       	mov    $0x10741,%eax
   10be7:	0f b7 c0             	movzwl %ax,%eax
   10bea:	8b 55 f4             	mov    -0xc(%ebp),%edx
   10bed:	c1 e2 03             	shl    $0x3,%edx
   10bf0:	81 c2 00 33 01 00    	add    $0x13300,%edx
   10bf6:	6a 00                	push   $0x0
   10bf8:	50                   	push   %eax
   10bf9:	6a 08                	push   $0x8
   10bfb:	52                   	push   %edx
   10bfc:	e8 b6 f7 ff ff       	call   103b7 <gate_desc_set>
   10c01:	83 c4 10             	add    $0x10,%esp
    return 0;
}
void irq_init(){
    //安装中断描述符
    //如果不需要借助栈段传参的话可以直接安装在idt表中
    for(int i=0;i<IDT_TABLE_NR;i++){
   10c04:	83 45 f4 01          	addl   $0x1,-0xc(%ebp)
   10c08:	83 7d f4 7f          	cmpl   $0x7f,-0xc(%ebp)
   10c0c:	7e d4                	jle    10be2 <irq_init+0xf>
        gate_desc_set(idt_table+i,KERNEL_SELECTOR_CS,(uint32_t)do_handler_unknown, 
            GATE_P_PRESENT|GATE_DPL0|GATE_TYPE_IDT);
    }
    irq_install(IRQ0_DE,do_handler_driver);
   10c0e:	83 ec 08             	sub    $0x8,%esp
   10c11:	68 5d 07 01 00       	push   $0x1075d
   10c16:	6a 00                	push   $0x0
   10c18:	e8 76 ff ff ff       	call   10b93 <irq_install>
   10c1d:	83 c4 10             	add    $0x10,%esp
    irq_install(IRQ1_DB,do_handler_Debug);
   10c20:	83 ec 08             	sub    $0x8,%esp
   10c23:	68 79 07 01 00       	push   $0x10779
   10c28:	6a 01                	push   $0x1
   10c2a:	e8 64 ff ff ff       	call   10b93 <irq_install>
   10c2f:	83 c4 10             	add    $0x10,%esp
    irq_install(IRQ2_NMI,do_handler_NMI);
   10c32:	83 ec 08             	sub    $0x8,%esp
   10c35:	68 95 07 01 00       	push   $0x10795
   10c3a:	6a 02                	push   $0x2
   10c3c:	e8 52 ff ff ff       	call   10b93 <irq_install>
   10c41:	83 c4 10             	add    $0x10,%esp
    irq_install(IRQ3_BP,do_handler_breakpoint);
   10c44:	83 ec 08             	sub    $0x8,%esp
   10c47:	68 b1 07 01 00       	push   $0x107b1
   10c4c:	6a 03                	push   $0x3
   10c4e:	e8 40 ff ff ff       	call   10b93 <irq_install>
   10c53:	83 c4 10             	add    $0x10,%esp
    irq_install(IRQ4_OF,do_handler_overflow);
   10c56:	83 ec 08             	sub    $0x8,%esp
   10c59:	68 cd 07 01 00       	push   $0x107cd
   10c5e:	6a 04                	push   $0x4
   10c60:	e8 2e ff ff ff       	call   10b93 <irq_install>
   10c65:	83 c4 10             	add    $0x10,%esp
    irq_install(IRQ5_BR,do_handler_bound_range);
   10c68:	83 ec 08             	sub    $0x8,%esp
   10c6b:	68 e9 07 01 00       	push   $0x107e9
   10c70:	6a 05                	push   $0x5
   10c72:	e8 1c ff ff ff       	call   10b93 <irq_install>
   10c77:	83 c4 10             	add    $0x10,%esp
    irq_install(IRQ6_UD,do_handler_invalid_opcode);
   10c7a:	83 ec 08             	sub    $0x8,%esp
   10c7d:	68 05 08 01 00       	push   $0x10805
   10c82:	6a 06                	push   $0x6
   10c84:	e8 0a ff ff ff       	call   10b93 <irq_install>
   10c89:	83 c4 10             	add    $0x10,%esp
    irq_install(IRQ7_NM,do_handler_device_unavailable);
   10c8c:	83 ec 08             	sub    $0x8,%esp
   10c8f:	68 21 08 01 00       	push   $0x10821
   10c94:	6a 07                	push   $0x7
   10c96:	e8 f8 fe ff ff       	call   10b93 <irq_install>
   10c9b:	83 c4 10             	add    $0x10,%esp
    irq_install(IRQ8_DF,do_handler_double_fault);
   10c9e:	83 ec 08             	sub    $0x8,%esp
   10ca1:	68 3d 08 01 00       	push   $0x1083d
   10ca6:	6a 08                	push   $0x8
   10ca8:	e8 e6 fe ff ff       	call   10b93 <irq_install>
   10cad:	83 c4 10             	add    $0x10,%esp
    irq_install(IRQ10_TS,do_handler_invalid_tss);
   10cb0:	83 ec 08             	sub    $0x8,%esp
   10cb3:	68 59 08 01 00       	push   $0x10859
   10cb8:	6a 0a                	push   $0xa
   10cba:	e8 d4 fe ff ff       	call   10b93 <irq_install>
   10cbf:	83 c4 10             	add    $0x10,%esp
    irq_install(IRQ11_NP,do_handler_segment_not_present);
   10cc2:	83 ec 08             	sub    $0x8,%esp
   10cc5:	68 75 08 01 00       	push   $0x10875
   10cca:	6a 0b                	push   $0xb
   10ccc:	e8 c2 fe ff ff       	call   10b93 <irq_install>
   10cd1:	83 c4 10             	add    $0x10,%esp
    irq_install(IRQ12_SS,do_handler_stack_segment_fault);
   10cd4:	83 ec 08             	sub    $0x8,%esp
   10cd7:	68 91 08 01 00       	push   $0x10891
   10cdc:	6a 0c                	push   $0xc
   10cde:	e8 b0 fe ff ff       	call   10b93 <irq_install>
   10ce3:	83 c4 10             	add    $0x10,%esp
    irq_install(IRQ13_GP,do_handler_general_protection);
   10ce6:	83 ec 08             	sub    $0x8,%esp
   10ce9:	68 ad 08 01 00       	push   $0x108ad
   10cee:	6a 0d                	push   $0xd
   10cf0:	e8 9e fe ff ff       	call   10b93 <irq_install>
   10cf5:	83 c4 10             	add    $0x10,%esp
    irq_install(IRQ14_PF,do_handler_page_fault);
   10cf8:	83 ec 08             	sub    $0x8,%esp
   10cfb:	68 75 09 01 00       	push   $0x10975
   10d00:	6a 0e                	push   $0xe
   10d02:	e8 8c fe ff ff       	call   10b93 <irq_install>
   10d07:	83 c4 10             	add    $0x10,%esp
    irq_install(IRQ16_MF,do_handler_fpu_error); 
   10d0a:	83 ec 08             	sub    $0x8,%esp
   10d0d:	68 49 0a 01 00       	push   $0x10a49
   10d12:	6a 10                	push   $0x10
   10d14:	e8 7a fe ff ff       	call   10b93 <irq_install>
   10d19:	83 c4 10             	add    $0x10,%esp
    irq_install(IRQ17_AC,do_handler_alignment_check);
   10d1c:	83 ec 08             	sub    $0x8,%esp
   10d1f:	68 65 0a 01 00       	push   $0x10a65
   10d24:	6a 11                	push   $0x11
   10d26:	e8 68 fe ff ff       	call   10b93 <irq_install>
   10d2b:	83 c4 10             	add    $0x10,%esp
    irq_install(IRQ18_MC,do_handler_machine_check);
   10d2e:	83 ec 08             	sub    $0x8,%esp
   10d31:	68 81 0a 01 00       	push   $0x10a81
   10d36:	6a 12                	push   $0x12
   10d38:	e8 56 fe ff ff       	call   10b93 <irq_install>
   10d3d:	83 c4 10             	add    $0x10,%esp
    irq_install(IRQ19_XM,do_handler_smd_exception);
   10d40:	83 ec 08             	sub    $0x8,%esp
   10d43:	68 9d 0a 01 00       	push   $0x10a9d
   10d48:	6a 13                	push   $0x13
   10d4a:	e8 44 fe ff ff       	call   10b93 <irq_install>
   10d4f:	83 c4 10             	add    $0x10,%esp
    irq_install(IRQ20_VE,do_handler_virtual_exception);
   10d52:	83 ec 08             	sub    $0x8,%esp
   10d55:	68 b9 0a 01 00       	push   $0x10ab9
   10d5a:	6a 14                	push   $0x14
   10d5c:	e8 32 fe ff ff       	call   10b93 <irq_install>
   10d61:	83 c4 10             	add    $0x10,%esp
    lidt((uint32_t)idt_table,sizeof(idt_table));
   10d64:	b8 00 33 01 00       	mov    $0x13300,%eax
   10d69:	83 ec 08             	sub    $0x8,%esp
   10d6c:	68 00 04 00 00       	push   $0x400
   10d71:	50                   	push   %eax
   10d72:	e8 a7 f7 ff ff       	call   1051e <lidt>
   10d77:	83 c4 10             	add    $0x10,%esp
    init_pic();
   10d7a:	e8 56 fd ff ff       	call   10ad5 <init_pic>
}
   10d7f:	90                   	nop
   10d80:	c9                   	leave  
   10d81:	c3                   	ret    

00010d82 <irq_enable>:
void irq_enable(int irq_num){
   10d82:	55                   	push   %ebp
   10d83:	89 e5                	mov    %esp,%ebp
   10d85:	53                   	push   %ebx
   10d86:	83 ec 10             	sub    $0x10,%esp
    if(irq_num<IRQ_PIC_START){
   10d89:	83 7d 08 1f          	cmpl   $0x1f,0x8(%ebp)
   10d8d:	7e 78                	jle    10e07 <irq_enable+0x85>
        return;
    }
    irq_num-=IRQ_PIC_START;
   10d8f:	83 6d 08 20          	subl   $0x20,0x8(%ebp)
    if(irq_num<8){
   10d93:	83 7d 08 07          	cmpl   $0x7,0x8(%ebp)
   10d97:	7f 32                	jg     10dcb <irq_enable+0x49>
        uint8_t mask=inb(PIC0_IMR)&~(1<<irq_num);
   10d99:	6a 21                	push   $0x21
   10d9b:	e8 2d f7 ff ff       	call   104cd <inb>
   10da0:	83 c4 04             	add    $0x4,%esp
   10da3:	89 c2                	mov    %eax,%edx
   10da5:	8b 45 08             	mov    0x8(%ebp),%eax
   10da8:	bb 01 00 00 00       	mov    $0x1,%ebx
   10dad:	89 c1                	mov    %eax,%ecx
   10daf:	d3 e3                	shl    %cl,%ebx
   10db1:	89 d8                	mov    %ebx,%eax
   10db3:	f7 d0                	not    %eax
   10db5:	21 d0                	and    %edx,%eax
   10db7:	88 45 fb             	mov    %al,-0x5(%ebp)
        outb(PIC0_IMR,mask);
   10dba:	0f b6 45 fb          	movzbl -0x5(%ebp),%eax
   10dbe:	50                   	push   %eax
   10dbf:	6a 21                	push   $0x21
   10dc1:	e8 24 f7 ff ff       	call   104ea <outb>
   10dc6:	83 c4 08             	add    $0x8,%esp
   10dc9:	eb 3d                	jmp    10e08 <irq_enable+0x86>
    }else{
        irq_num-=8;
   10dcb:	83 6d 08 08          	subl   $0x8,0x8(%ebp)
        uint8_t mask=inb(PIC1_IMR)&~(1<<irq_num);
   10dcf:	68 a1 00 00 00       	push   $0xa1
   10dd4:	e8 f4 f6 ff ff       	call   104cd <inb>
   10dd9:	83 c4 04             	add    $0x4,%esp
   10ddc:	89 c2                	mov    %eax,%edx
   10dde:	8b 45 08             	mov    0x8(%ebp),%eax
   10de1:	bb 01 00 00 00       	mov    $0x1,%ebx
   10de6:	89 c1                	mov    %eax,%ecx
   10de8:	d3 e3                	shl    %cl,%ebx
   10dea:	89 d8                	mov    %ebx,%eax
   10dec:	f7 d0                	not    %eax
   10dee:	21 d0                	and    %edx,%eax
   10df0:	88 45 fa             	mov    %al,-0x6(%ebp)
        outb(PIC1_IMR,mask);
   10df3:	0f b6 45 fa          	movzbl -0x6(%ebp),%eax
   10df7:	50                   	push   %eax
   10df8:	68 a1 00 00 00       	push   $0xa1
   10dfd:	e8 e8 f6 ff ff       	call   104ea <outb>
   10e02:	83 c4 08             	add    $0x8,%esp
   10e05:	eb 01                	jmp    10e08 <irq_enable+0x86>
    lidt((uint32_t)idt_table,sizeof(idt_table));
    init_pic();
}
void irq_enable(int irq_num){
    if(irq_num<IRQ_PIC_START){
        return;
   10e07:	90                   	nop
    }else{
        irq_num-=8;
        uint8_t mask=inb(PIC1_IMR)&~(1<<irq_num);
        outb(PIC1_IMR,mask);
    }
}
   10e08:	8b 5d fc             	mov    -0x4(%ebp),%ebx
   10e0b:	c9                   	leave  
   10e0c:	c3                   	ret    

00010e0d <irq_disable>:

void irq_disable(int irq_num){
   10e0d:	55                   	push   %ebp
   10e0e:	89 e5                	mov    %esp,%ebp
   10e10:	53                   	push   %ebx
   10e11:	83 ec 10             	sub    $0x10,%esp
    if(irq_num<IRQ_PIC_START){
   10e14:	83 7d 08 1f          	cmpl   $0x1f,0x8(%ebp)
   10e18:	7e 74                	jle    10e8e <irq_disable+0x81>
        return ;
    }
    irq_num-=IRQ_PIC_START;
   10e1a:	83 6d 08 20          	subl   $0x20,0x8(%ebp)
    if(irq_num<8){
   10e1e:	83 7d 08 07          	cmpl   $0x7,0x8(%ebp)
   10e22:	7f 30                	jg     10e54 <irq_disable+0x47>
        uint8_t mask=inb(PIC0_IMR)|(1<<irq_num);
   10e24:	6a 21                	push   $0x21
   10e26:	e8 a2 f6 ff ff       	call   104cd <inb>
   10e2b:	83 c4 04             	add    $0x4,%esp
   10e2e:	89 c3                	mov    %eax,%ebx
   10e30:	8b 45 08             	mov    0x8(%ebp),%eax
   10e33:	ba 01 00 00 00       	mov    $0x1,%edx
   10e38:	89 c1                	mov    %eax,%ecx
   10e3a:	d3 e2                	shl    %cl,%edx
   10e3c:	89 d0                	mov    %edx,%eax
   10e3e:	09 d8                	or     %ebx,%eax
   10e40:	88 45 fb             	mov    %al,-0x5(%ebp)
        outb(PIC0_IMR,mask);
   10e43:	0f b6 45 fb          	movzbl -0x5(%ebp),%eax
   10e47:	50                   	push   %eax
   10e48:	6a 21                	push   $0x21
   10e4a:	e8 9b f6 ff ff       	call   104ea <outb>
   10e4f:	83 c4 08             	add    $0x8,%esp
   10e52:	eb 3b                	jmp    10e8f <irq_disable+0x82>
    }else{
        irq_num-=8;
   10e54:	83 6d 08 08          	subl   $0x8,0x8(%ebp)
        uint8_t mask=inb(PIC1_IMR)|(1<<irq_num);
   10e58:	68 a1 00 00 00       	push   $0xa1
   10e5d:	e8 6b f6 ff ff       	call   104cd <inb>
   10e62:	83 c4 04             	add    $0x4,%esp
   10e65:	89 c3                	mov    %eax,%ebx
   10e67:	8b 45 08             	mov    0x8(%ebp),%eax
   10e6a:	ba 01 00 00 00       	mov    $0x1,%edx
   10e6f:	89 c1                	mov    %eax,%ecx
   10e71:	d3 e2                	shl    %cl,%edx
   10e73:	89 d0                	mov    %edx,%eax
   10e75:	09 d8                	or     %ebx,%eax
   10e77:	88 45 fa             	mov    %al,-0x6(%ebp)
        outb(PIC1_IMR,mask);
   10e7a:	0f b6 45 fa          	movzbl -0x6(%ebp),%eax
   10e7e:	50                   	push   %eax
   10e7f:	68 a1 00 00 00       	push   $0xa1
   10e84:	e8 61 f6 ff ff       	call   104ea <outb>
   10e89:	83 c4 08             	add    $0x8,%esp
   10e8c:	eb 01                	jmp    10e8f <irq_disable+0x82>
    }
}

void irq_disable(int irq_num){
    if(irq_num<IRQ_PIC_START){
        return ;
   10e8e:	90                   	nop
    }else{
        irq_num-=8;
        uint8_t mask=inb(PIC1_IMR)|(1<<irq_num);
        outb(PIC1_IMR,mask);
    }
}
   10e8f:	8b 5d fc             	mov    -0x4(%ebp),%ebx
   10e92:	c9                   	leave  
   10e93:	c3                   	ret    

00010e94 <irq_disable_global>:

void irq_disable_global(void){
   10e94:	55                   	push   %ebp
   10e95:	89 e5                	mov    %esp,%ebp
    cli();
   10e97:	e8 6d f6 ff ff       	call   10509 <cli>
}
   10e9c:	90                   	nop
   10e9d:	5d                   	pop    %ebp
   10e9e:	c3                   	ret    

00010e9f <irq_enable_global>:

void irq_enable_global(void){
   10e9f:	55                   	push   %ebp
   10ea0:	89 e5                	mov    %esp,%ebp
    sti();
   10ea2:	e8 69 f6 ff ff       	call   10510 <sti>
}
   10ea7:	90                   	nop
   10ea8:	5d                   	pop    %ebp
   10ea9:	c3                   	ret    

00010eaa <irq_enter_protection>:

irq_state_t irq_enter_protection(void){
   10eaa:	55                   	push   %ebp
   10eab:	89 e5                	mov    %esp,%ebp
   10ead:	83 ec 10             	sub    $0x10,%esp
    irq_state_t state=read_eflags();
   10eb0:	e8 a5 f6 ff ff       	call   1055a <read_eflags>
   10eb5:	89 45 fc             	mov    %eax,-0x4(%ebp)
    irq_disable_global();
   10eb8:	e8 d7 ff ff ff       	call   10e94 <irq_disable_global>
    return state;
   10ebd:	8b 45 fc             	mov    -0x4(%ebp),%eax
}
   10ec0:	c9                   	leave  
   10ec1:	c3                   	ret    

00010ec2 <irq_leave_protection>:

void irq_leave_protection(irq_state_t state){
   10ec2:	55                   	push   %ebp
   10ec3:	89 e5                	mov    %esp,%ebp
    write_eflags(state);
   10ec5:	ff 75 08             	pushl  0x8(%ebp)
   10ec8:	e8 9d f6 ff ff       	call   1056a <write_eflags>
   10ecd:	83 c4 04             	add    $0x4,%esp
   10ed0:	90                   	nop
   10ed1:	c9                   	leave  
   10ed2:	c3                   	ret    

00010ed3 <kernel_init>:
#include"os_cfg.h"
#include"dev/time.h"
#include"cpu/irq.h"

static boot_info_t*init_boot_info;
void kernel_init(boot_info_t*boot_info){
   10ed3:	55                   	push   %ebp
   10ed4:	89 e5                	mov    %esp,%ebp
   10ed6:	83 ec 08             	sub    $0x8,%esp
    init_boot_info=boot_info;
   10ed9:	8b 45 08             	mov    0x8(%ebp),%eax
   10edc:	a3 00 37 01 00       	mov    %eax,0x13700
    cpu_init(); //建立gdt表并加载
   10ee1:	e8 dc f5 ff ff       	call   104c2 <cpu_init>
    irq_init(); //初始化中断描述表
   10ee6:	e8 e8 fc ff ff       	call   10bd3 <irq_init>
    time_init(); //始终初始化 准备计时
   10eeb:	e8 26 01 00 00       	call   11016 <time_init>
}
   10ef0:	90                   	nop
   10ef1:	c9                   	leave  
   10ef2:	c3                   	ret    

00010ef3 <init_task_entry>:


void init_task_entry(void){
   10ef3:	55                   	push   %ebp
   10ef4:	89 e5                	mov    %esp,%ebp
   10ef6:	83 ec 18             	sub    $0x18,%esp
    int count=0;
   10ef9:	c7 45 f4 00 00 00 00 	movl   $0x0,-0xc(%ebp)
    for(;;){
        log_printf("init task:%d",count++);
   10f00:	8b 45 f4             	mov    -0xc(%ebp),%eax
   10f03:	8d 50 01             	lea    0x1(%eax),%edx
   10f06:	89 55 f4             	mov    %edx,-0xc(%ebp)
   10f09:	83 ec 08             	sub    $0x8,%esp
   10f0c:	50                   	push   %eax
   10f0d:	68 5b 2a 01 00       	push   $0x12a5b
   10f12:	e8 f4 07 00 00       	call   1170b <log_printf>
   10f17:	83 c4 10             	add    $0x10,%esp
    }
   10f1a:	eb e4                	jmp    10f00 <init_task_entry+0xd>

00010f1c <init_main>:
}

void init_main(void){
   10f1c:	55                   	push   %ebp
   10f1d:	89 e5                	mov    %esp,%ebp
   10f1f:	83 ec 18             	sub    $0x18,%esp
    log_printf("Kernel is running...");
   10f22:	83 ec 0c             	sub    $0xc,%esp
   10f25:	68 68 2a 01 00       	push   $0x12a68
   10f2a:	e8 dc 07 00 00       	call   1170b <log_printf>
   10f2f:	83 c4 10             	add    $0x10,%esp
    log_printf("Version:%s,name:%s",OS_VERSION,"tiny x86 os");
   10f32:	83 ec 04             	sub    $0x4,%esp
   10f35:	68 7d 2a 01 00       	push   $0x12a7d
   10f3a:	68 89 2a 01 00       	push   $0x12a89
   10f3f:	68 8f 2a 01 00       	push   $0x12a8f
   10f44:	e8 c2 07 00 00       	call   1170b <log_printf>
   10f49:	83 c4 10             	add    $0x10,%esp
    int count=0;
   10f4c:	c7 45 f4 00 00 00 00 	movl   $0x0,-0xc(%ebp)
    for(;;){
        log_printf("first task:%d",count++);
   10f53:	8b 45 f4             	mov    -0xc(%ebp),%eax
   10f56:	8d 50 01             	lea    0x1(%eax),%edx
   10f59:	89 55 f4             	mov    %edx,-0xc(%ebp)
   10f5c:	83 ec 08             	sub    $0x8,%esp
   10f5f:	50                   	push   %eax
   10f60:	68 a2 2a 01 00       	push   $0x12aa2
   10f65:	e8 a1 07 00 00       	call   1170b <log_printf>
   10f6a:	83 c4 10             	add    $0x10,%esp
    }
   10f6d:	eb e4                	jmp    10f53 <init_main+0x37>

00010f6f <outb>:
static inline uint16_t inw(uint16_t port){
    uint16_t ret;
    __asm__ __volatile__("in %1, %0" : "=a" (ret) : "dN" (port));
    return ret;
}
static inline void outb(uint16_t port, uint8_t val){
   10f6f:	55                   	push   %ebp
   10f70:	89 e5                	mov    %esp,%ebp
   10f72:	83 ec 08             	sub    $0x8,%esp
   10f75:	8b 55 08             	mov    0x8(%ebp),%edx
   10f78:	8b 45 0c             	mov    0xc(%ebp),%eax
   10f7b:	66 89 55 fc          	mov    %dx,-0x4(%ebp)
   10f7f:	88 45 f8             	mov    %al,-0x8(%ebp)
    __asm__ __volatile__("outb %[v],%[p]" : : [v]"a"(val), [p]"d"(port));
   10f82:	0f b6 45 f8          	movzbl -0x8(%ebp),%eax
   10f86:	0f b7 55 fc          	movzwl -0x4(%ebp),%edx
   10f8a:	ee                   	out    %al,(%dx)
}
   10f8b:	90                   	nop
   10f8c:	c9                   	leave  
   10f8d:	c3                   	ret    

00010f8e <do_handler_timer>:
#include "comm/cpu_instr.h"
#include "os_cfg.h"


static uint32_t sys_tick;
void do_handler_timer(exception_frame_t *frame){
   10f8e:	55                   	push   %ebp
   10f8f:	89 e5                	mov    %esp,%ebp
   10f91:	83 ec 08             	sub    $0x8,%esp
    sys_tick++;
   10f94:	a1 04 37 01 00       	mov    0x13704,%eax
   10f99:	83 c0 01             	add    $0x1,%eax
   10f9c:	a3 04 37 01 00       	mov    %eax,0x13704
    pic_send_eoi(IRQ0_TIMER);
   10fa1:	83 ec 0c             	sub    $0xc,%esp
   10fa4:	6a 20                	push   $0x20
   10fa6:	e8 bd fb ff ff       	call   10b68 <pic_send_eoi>
   10fab:	83 c4 10             	add    $0x10,%esp
    task_time_tick();
   10fae:	e8 56 13 00 00       	call   12309 <task_time_tick>
}
   10fb3:	90                   	nop
   10fb4:	c9                   	leave  
   10fb5:	c3                   	ret    

00010fb6 <init_pit>:

static void init_pit(void){
   10fb6:	55                   	push   %ebp
   10fb7:	89 e5                	mov    %esp,%ebp
   10fb9:	83 ec 18             	sub    $0x18,%esp
    uint32_t reload_count=(PIT_OSC_FREQ/(1000.0/OS_TICK_MS)); //每十毫秒tick++
   10fbc:	c7 45 f4 9b 2e 00 00 	movl   $0x2e9b,-0xc(%ebp)
    outb(PIT_COMMAND_MODE_PORT, PIT_CHANNEL0|PIT_LOAD_LOHI|PIT_MODE0); 
   10fc3:	6a 36                	push   $0x36
   10fc5:	6a 43                	push   $0x43
   10fc7:	e8 a3 ff ff ff       	call   10f6f <outb>
   10fcc:	83 c4 08             	add    $0x8,%esp
    outb(PIT_CHANNEL0_DATA_PORT,reload_count&0xff);
   10fcf:	8b 45 f4             	mov    -0xc(%ebp),%eax
   10fd2:	0f b6 c0             	movzbl %al,%eax
   10fd5:	50                   	push   %eax
   10fd6:	6a 40                	push   $0x40
   10fd8:	e8 92 ff ff ff       	call   10f6f <outb>
   10fdd:	83 c4 08             	add    $0x8,%esp
    outb(PIT_CHANNEL0_DATA_PORT,(reload_count>>8)&0xff);
   10fe0:	8b 45 f4             	mov    -0xc(%ebp),%eax
   10fe3:	c1 e8 08             	shr    $0x8,%eax
   10fe6:	0f b6 c0             	movzbl %al,%eax
   10fe9:	50                   	push   %eax
   10fea:	6a 40                	push   $0x40
   10fec:	e8 7e ff ff ff       	call   10f6f <outb>
   10ff1:	83 c4 08             	add    $0x8,%esp

    irq_install(IRQ0_TIMER, (irq_handler_t)exception_handler_timer);
   10ff4:	83 ec 08             	sub    $0x8,%esp
   10ff7:	68 d6 02 01 00       	push   $0x102d6
   10ffc:	6a 20                	push   $0x20
   10ffe:	e8 90 fb ff ff       	call   10b93 <irq_install>
   11003:	83 c4 10             	add    $0x10,%esp
    irq_enable(IRQ0_TIMER);
   11006:	83 ec 0c             	sub    $0xc,%esp
   11009:	6a 20                	push   $0x20
   1100b:	e8 72 fd ff ff       	call   10d82 <irq_enable>
   11010:	83 c4 10             	add    $0x10,%esp
}
   11013:	90                   	nop
   11014:	c9                   	leave  
   11015:	c3                   	ret    

00011016 <time_init>:

void time_init(void){
   11016:	55                   	push   %ebp
   11017:	89 e5                	mov    %esp,%ebp
   11019:	83 ec 08             	sub    $0x8,%esp
    sys_tick=0;
   1101c:	c7 05 04 37 01 00 00 	movl   $0x0,0x13704
   11023:	00 00 00 
    init_pit();
   11026:	e8 8b ff ff ff       	call   10fb6 <init_pit>
   1102b:	90                   	nop
   1102c:	c9                   	leave  
   1102d:	c3                   	ret    

0001102e <inb>:
//一些简单汇编的封装
#ifndef CPU_INSTR_H
#define CPU_INSTR_H
#include"types.h"
static inline uint8_t inb(uint16_t port){
   1102e:	55                   	push   %ebp
   1102f:	89 e5                	mov    %esp,%ebp
   11031:	83 ec 14             	sub    $0x14,%esp
   11034:	8b 45 08             	mov    0x8(%ebp),%eax
   11037:	66 89 45 ec          	mov    %ax,-0x14(%ebp)
    uint8_t ret;
    __asm__ __volatile__("inb %[p], %[v]" : [v]"=a"(ret) : [p]"d"(port));
   1103b:	0f b7 45 ec          	movzwl -0x14(%ebp),%eax
   1103f:	89 c2                	mov    %eax,%edx
   11041:	ec                   	in     (%dx),%al
   11042:	88 45 ff             	mov    %al,-0x1(%ebp)
    //"d"表示使用通用寄存器EDX来传递输入操作数
    //"a"表示将结果存储在寄存器EAX
    return ret;
   11045:	0f b6 45 ff          	movzbl -0x1(%ebp),%eax
}
   11049:	c9                   	leave  
   1104a:	c3                   	ret    

0001104b <outb>:
static inline uint16_t inw(uint16_t port){
    uint16_t ret;
    __asm__ __volatile__("in %1, %0" : "=a" (ret) : "dN" (port));
    return ret;
}
static inline void outb(uint16_t port, uint8_t val){
   1104b:	55                   	push   %ebp
   1104c:	89 e5                	mov    %esp,%ebp
   1104e:	83 ec 08             	sub    $0x8,%esp
   11051:	8b 55 08             	mov    0x8(%ebp),%edx
   11054:	8b 45 0c             	mov    0xc(%ebp),%eax
   11057:	66 89 55 fc          	mov    %dx,-0x4(%ebp)
   1105b:	88 45 f8             	mov    %al,-0x8(%ebp)
    __asm__ __volatile__("outb %[v],%[p]" : : [v]"a"(val), [p]"d"(port));
   1105e:	0f b6 45 f8          	movzbl -0x8(%ebp),%eax
   11062:	0f b7 55 fc          	movzwl -0x4(%ebp),%edx
   11066:	ee                   	out    %al,(%dx)
}
   11067:	90                   	nop
   11068:	c9                   	leave  
   11069:	c3                   	ret    

0001106a <read_cursor_pos>:
#include "dev/console.h"
#include "tools/klib.h"
#include "comm/cpu_instr.h"
#define CONSOLE_NR 1
static console_t console_buf[CONSOLE_NR]; 
static int read_cursor_pos(){
   1106a:	55                   	push   %ebp
   1106b:	89 e5                	mov    %esp,%ebp
   1106d:	83 ec 10             	sub    $0x10,%esp
    int pos=0;
   11070:	c7 45 fc 00 00 00 00 	movl   $0x0,-0x4(%ebp)
    outb(0x3D4,0x0F); //写低地址
   11077:	6a 0f                	push   $0xf
   11079:	68 d4 03 00 00       	push   $0x3d4
   1107e:	e8 c8 ff ff ff       	call   1104b <outb>
   11083:	83 c4 08             	add    $0x8,%esp
    pos|=inb(0x3D5); //读高地址
   11086:	68 d5 03 00 00       	push   $0x3d5
   1108b:	e8 9e ff ff ff       	call   1102e <inb>
   11090:	83 c4 04             	add    $0x4,%esp
   11093:	0f b6 c0             	movzbl %al,%eax
   11096:	09 45 fc             	or     %eax,-0x4(%ebp)
    outb(0x3D4,0x0E); //写高地址
   11099:	6a 0e                	push   $0xe
   1109b:	68 d4 03 00 00       	push   $0x3d4
   110a0:	e8 a6 ff ff ff       	call   1104b <outb>
   110a5:	83 c4 08             	add    $0x8,%esp
    pos|=inb(0x3D5)<<8;
   110a8:	68 d5 03 00 00       	push   $0x3d5
   110ad:	e8 7c ff ff ff       	call   1102e <inb>
   110b2:	83 c4 04             	add    $0x4,%esp
   110b5:	0f b6 c0             	movzbl %al,%eax
   110b8:	c1 e0 08             	shl    $0x8,%eax
   110bb:	09 45 fc             	or     %eax,-0x4(%ebp)
    return pos;
   110be:	8b 45 fc             	mov    -0x4(%ebp),%eax
}
   110c1:	c9                   	leave  
   110c2:	c3                   	ret    

000110c3 <erase_rows>:
static void erase_rows(console_t*console,int start,int end){
   110c3:	55                   	push   %ebp
   110c4:	89 e5                	mov    %esp,%ebp
   110c6:	83 ec 10             	sub    $0x10,%esp
    int offset=console->display_cols*start;
   110c9:	8b 45 08             	mov    0x8(%ebp),%eax
   110cc:	8b 40 14             	mov    0x14(%eax),%eax
   110cf:	0f af 45 0c          	imul   0xc(%ebp),%eax
   110d3:	89 45 f8             	mov    %eax,-0x8(%ebp)
    int nr_bytes=console->display_cols*(end-start+1);
   110d6:	8b 45 08             	mov    0x8(%ebp),%eax
   110d9:	8b 50 14             	mov    0x14(%eax),%edx
   110dc:	8b 45 10             	mov    0x10(%ebp),%eax
   110df:	2b 45 0c             	sub    0xc(%ebp),%eax
   110e2:	83 c0 01             	add    $0x1,%eax
   110e5:	0f af c2             	imul   %edx,%eax
   110e8:	89 45 f4             	mov    %eax,-0xc(%ebp)
    disp_char_t*dest=console->disp_base+offset;
   110eb:	8b 45 08             	mov    0x8(%ebp),%eax
   110ee:	8b 00                	mov    (%eax),%eax
   110f0:	8b 55 f8             	mov    -0x8(%ebp),%edx
   110f3:	01 d2                	add    %edx,%edx
   110f5:	01 d0                	add    %edx,%eax
   110f7:	89 45 f0             	mov    %eax,-0x10(%ebp)
    for(int i=0;i<nr_bytes;i++){
   110fa:	c7 45 fc 00 00 00 00 	movl   $0x0,-0x4(%ebp)
   11101:	eb 65                	jmp    11168 <erase_rows+0xa5>
        dest[i].c=' ';
   11103:	8b 45 fc             	mov    -0x4(%ebp),%eax
   11106:	8d 14 00             	lea    (%eax,%eax,1),%edx
   11109:	8b 45 f0             	mov    -0x10(%ebp),%eax
   1110c:	01 d0                	add    %edx,%eax
   1110e:	c6 00 20             	movb   $0x20,(%eax)
        dest[i].foreground = console->foreground;
   11111:	8b 45 fc             	mov    -0x4(%ebp),%eax
   11114:	8d 14 00             	lea    (%eax,%eax,1),%edx
   11117:	8b 45 f0             	mov    -0x10(%ebp),%eax
   1111a:	01 c2                	add    %eax,%edx
   1111c:	8b 45 08             	mov    0x8(%ebp),%eax
   1111f:	8b 40 20             	mov    0x20(%eax),%eax
   11122:	c1 e0 04             	shl    $0x4,%eax
   11125:	c0 f8 04             	sar    $0x4,%al
   11128:	83 e0 0f             	and    $0xf,%eax
   1112b:	89 c1                	mov    %eax,%ecx
   1112d:	0f b6 42 01          	movzbl 0x1(%edx),%eax
   11131:	83 e0 f0             	and    $0xfffffff0,%eax
   11134:	09 c8                	or     %ecx,%eax
   11136:	88 42 01             	mov    %al,0x1(%edx)
        dest[i].background = console->background;
   11139:	8b 45 fc             	mov    -0x4(%ebp),%eax
   1113c:	8d 14 00             	lea    (%eax,%eax,1),%edx
   1113f:	8b 45 f0             	mov    -0x10(%ebp),%eax
   11142:	01 c2                	add    %eax,%edx
   11144:	8b 45 08             	mov    0x8(%ebp),%eax
   11147:	8b 40 24             	mov    0x24(%eax),%eax
   1114a:	c1 e0 05             	shl    $0x5,%eax
   1114d:	c0 f8 05             	sar    $0x5,%al
   11150:	83 e0 07             	and    $0x7,%eax
   11153:	c1 e0 04             	shl    $0x4,%eax
   11156:	89 c1                	mov    %eax,%ecx
   11158:	0f b6 42 01          	movzbl 0x1(%edx),%eax
   1115c:	83 e0 8f             	and    $0xffffff8f,%eax
   1115f:	09 c8                	or     %ecx,%eax
   11161:	88 42 01             	mov    %al,0x1(%edx)
}
static void erase_rows(console_t*console,int start,int end){
    int offset=console->display_cols*start;
    int nr_bytes=console->display_cols*(end-start+1);
    disp_char_t*dest=console->disp_base+offset;
    for(int i=0;i<nr_bytes;i++){
   11164:	83 45 fc 01          	addl   $0x1,-0x4(%ebp)
   11168:	8b 45 fc             	mov    -0x4(%ebp),%eax
   1116b:	3b 45 f4             	cmp    -0xc(%ebp),%eax
   1116e:	7c 93                	jl     11103 <erase_rows+0x40>
        dest[i].c=' ';
        dest[i].foreground = console->foreground;
        dest[i].background = console->background;
    }
}
   11170:	90                   	nop
   11171:	c9                   	leave  
   11172:	c3                   	ret    

00011173 <scroll_up>:
static void scroll_up(console_t*console,int n){
   11173:	55                   	push   %ebp
   11174:	89 e5                	mov    %esp,%ebp
   11176:	83 ec 18             	sub    $0x18,%esp
    disp_char_t*dest=console->disp_base;
   11179:	8b 45 08             	mov    0x8(%ebp),%eax
   1117c:	8b 00                	mov    (%eax),%eax
   1117e:	89 45 f4             	mov    %eax,-0xc(%ebp)
    disp_char_t*src=console->disp_base+console->display_cols*n;
   11181:	8b 45 08             	mov    0x8(%ebp),%eax
   11184:	8b 10                	mov    (%eax),%edx
   11186:	8b 45 08             	mov    0x8(%ebp),%eax
   11189:	8b 40 14             	mov    0x14(%eax),%eax
   1118c:	0f af 45 0c          	imul   0xc(%ebp),%eax
   11190:	01 c0                	add    %eax,%eax
   11192:	01 d0                	add    %edx,%eax
   11194:	89 45 f0             	mov    %eax,-0x10(%ebp)
    uint32_t size=console->display_cols*(console->cursor_row-n)*sizeof(disp_char_t);
   11197:	8b 45 08             	mov    0x8(%ebp),%eax
   1119a:	8b 50 14             	mov    0x14(%eax),%edx
   1119d:	8b 45 08             	mov    0x8(%ebp),%eax
   111a0:	8b 40 08             	mov    0x8(%eax),%eax
   111a3:	2b 45 0c             	sub    0xc(%ebp),%eax
   111a6:	0f af c2             	imul   %edx,%eax
   111a9:	01 c0                	add    %eax,%eax
   111ab:	89 45 ec             	mov    %eax,-0x14(%ebp)
    kernel_memcpy(dest,src,size);
   111ae:	8b 45 ec             	mov    -0x14(%ebp),%eax
   111b1:	83 ec 04             	sub    $0x4,%esp
   111b4:	50                   	push   %eax
   111b5:	ff 75 f0             	pushl  -0x10(%ebp)
   111b8:	ff 75 f4             	pushl  -0xc(%ebp)
   111bb:	e8 52 09 00 00       	call   11b12 <kernel_memcpy>
   111c0:	83 c4 10             	add    $0x10,%esp
    erase_rows(console,console->display_rows-n,console->display_rows-1);
   111c3:	8b 45 08             	mov    0x8(%ebp),%eax
   111c6:	8b 40 10             	mov    0x10(%eax),%eax
   111c9:	8d 50 ff             	lea    -0x1(%eax),%edx
   111cc:	8b 45 08             	mov    0x8(%ebp),%eax
   111cf:	8b 40 10             	mov    0x10(%eax),%eax
   111d2:	2b 45 0c             	sub    0xc(%ebp),%eax
   111d5:	83 ec 04             	sub    $0x4,%esp
   111d8:	52                   	push   %edx
   111d9:	50                   	push   %eax
   111da:	ff 75 08             	pushl  0x8(%ebp)
   111dd:	e8 e1 fe ff ff       	call   110c3 <erase_rows>
   111e2:	83 c4 10             	add    $0x10,%esp
    console->cursor_row-=n;
   111e5:	8b 45 08             	mov    0x8(%ebp),%eax
   111e8:	8b 40 08             	mov    0x8(%eax),%eax
   111eb:	2b 45 0c             	sub    0xc(%ebp),%eax
   111ee:	89 c2                	mov    %eax,%edx
   111f0:	8b 45 08             	mov    0x8(%ebp),%eax
   111f3:	89 50 08             	mov    %edx,0x8(%eax)
}
   111f6:	90                   	nop
   111f7:	c9                   	leave  
   111f8:	c3                   	ret    

000111f9 <mov_to_col0>:
static void mov_to_col0(console_t*console){
   111f9:	55                   	push   %ebp
   111fa:	89 e5                	mov    %esp,%ebp
    console->cursor_col=0;
   111fc:	8b 45 08             	mov    0x8(%ebp),%eax
   111ff:	c7 40 0c 00 00 00 00 	movl   $0x0,0xc(%eax)
}
   11206:	90                   	nop
   11207:	5d                   	pop    %ebp
   11208:	c3                   	ret    

00011209 <move_next_line>:
static void move_next_line(console_t*console){
   11209:	55                   	push   %ebp
   1120a:	89 e5                	mov    %esp,%ebp
   1120c:	83 ec 08             	sub    $0x8,%esp
    console->cursor_row++;
   1120f:	8b 45 08             	mov    0x8(%ebp),%eax
   11212:	8b 40 08             	mov    0x8(%eax),%eax
   11215:	8d 50 01             	lea    0x1(%eax),%edx
   11218:	8b 45 08             	mov    0x8(%ebp),%eax
   1121b:	89 50 08             	mov    %edx,0x8(%eax)
    if(console->cursor_row>=console->display_rows){
   1121e:	8b 45 08             	mov    0x8(%ebp),%eax
   11221:	8b 50 08             	mov    0x8(%eax),%edx
   11224:	8b 45 08             	mov    0x8(%ebp),%eax
   11227:	8b 40 10             	mov    0x10(%eax),%eax
   1122a:	39 c2                	cmp    %eax,%edx
   1122c:	7c 10                	jl     1123e <move_next_line+0x35>
        scroll_up(console,1);
   1122e:	83 ec 08             	sub    $0x8,%esp
   11231:	6a 01                	push   $0x1
   11233:	ff 75 08             	pushl  0x8(%ebp)
   11236:	e8 38 ff ff ff       	call   11173 <scroll_up>
   1123b:	83 c4 10             	add    $0x10,%esp
    }
}
   1123e:	90                   	nop
   1123f:	c9                   	leave  
   11240:	c3                   	ret    

00011241 <move_forward>:
static void move_forward(console_t*console,int n){
   11241:	55                   	push   %ebp
   11242:	89 e5                	mov    %esp,%ebp
   11244:	83 ec 18             	sub    $0x18,%esp
    for(int i=0;i<n;i++){
   11247:	c7 45 f4 00 00 00 00 	movl   $0x0,-0xc(%ebp)
   1124e:	eb 5c                	jmp    112ac <move_forward+0x6b>
        console->cursor_col++;
   11250:	8b 45 08             	mov    0x8(%ebp),%eax
   11253:	8b 40 0c             	mov    0xc(%eax),%eax
   11256:	8d 50 01             	lea    0x1(%eax),%edx
   11259:	8b 45 08             	mov    0x8(%ebp),%eax
   1125c:	89 50 0c             	mov    %edx,0xc(%eax)
        if(console->cursor_col>=console->display_cols){
   1125f:	8b 45 08             	mov    0x8(%ebp),%eax
   11262:	8b 50 0c             	mov    0xc(%eax),%edx
   11265:	8b 45 08             	mov    0x8(%ebp),%eax
   11268:	8b 40 14             	mov    0x14(%eax),%eax
   1126b:	39 c2                	cmp    %eax,%edx
   1126d:	7c 39                	jl     112a8 <move_forward+0x67>
            console->cursor_col=0;
   1126f:	8b 45 08             	mov    0x8(%ebp),%eax
   11272:	c7 40 0c 00 00 00 00 	movl   $0x0,0xc(%eax)
            console->cursor_row++;
   11279:	8b 45 08             	mov    0x8(%ebp),%eax
   1127c:	8b 40 08             	mov    0x8(%eax),%eax
   1127f:	8d 50 01             	lea    0x1(%eax),%edx
   11282:	8b 45 08             	mov    0x8(%ebp),%eax
   11285:	89 50 08             	mov    %edx,0x8(%eax)
            if(console->cursor_row>=console->display_rows){
   11288:	8b 45 08             	mov    0x8(%ebp),%eax
   1128b:	8b 50 08             	mov    0x8(%eax),%edx
   1128e:	8b 45 08             	mov    0x8(%ebp),%eax
   11291:	8b 40 10             	mov    0x10(%eax),%eax
   11294:	39 c2                	cmp    %eax,%edx
   11296:	7c 10                	jl     112a8 <move_forward+0x67>
                scroll_up(console,1);
   11298:	83 ec 08             	sub    $0x8,%esp
   1129b:	6a 01                	push   $0x1
   1129d:	ff 75 08             	pushl  0x8(%ebp)
   112a0:	e8 ce fe ff ff       	call   11173 <scroll_up>
   112a5:	83 c4 10             	add    $0x10,%esp
    if(console->cursor_row>=console->display_rows){
        scroll_up(console,1);
    }
}
static void move_forward(console_t*console,int n){
    for(int i=0;i<n;i++){
   112a8:	83 45 f4 01          	addl   $0x1,-0xc(%ebp)
   112ac:	8b 45 f4             	mov    -0xc(%ebp),%eax
   112af:	3b 45 0c             	cmp    0xc(%ebp),%eax
   112b2:	7c 9c                	jl     11250 <move_forward+0xf>
            if(console->cursor_row>=console->display_rows){
                scroll_up(console,1);
            }
        }
    }
}
   112b4:	90                   	nop
   112b5:	c9                   	leave  
   112b6:	c3                   	ret    

000112b7 <show_char>:
static void show_char(console_t*console,char c){
   112b7:	55                   	push   %ebp
   112b8:	89 e5                	mov    %esp,%ebp
   112ba:	83 ec 28             	sub    $0x28,%esp
   112bd:	8b 45 0c             	mov    0xc(%ebp),%eax
   112c0:	88 45 e4             	mov    %al,-0x1c(%ebp)
    int offset=console->cursor_col+console->cursor_row*console->display_cols;
   112c3:	8b 45 08             	mov    0x8(%ebp),%eax
   112c6:	8b 50 0c             	mov    0xc(%eax),%edx
   112c9:	8b 45 08             	mov    0x8(%ebp),%eax
   112cc:	8b 48 08             	mov    0x8(%eax),%ecx
   112cf:	8b 45 08             	mov    0x8(%ebp),%eax
   112d2:	8b 40 14             	mov    0x14(%eax),%eax
   112d5:	0f af c1             	imul   %ecx,%eax
   112d8:	01 d0                	add    %edx,%eax
   112da:	89 45 f4             	mov    %eax,-0xc(%ebp)
    disp_char_t*p=(disp_char_t*)(console->disp_base)+offset;
   112dd:	8b 45 08             	mov    0x8(%ebp),%eax
   112e0:	8b 00                	mov    (%eax),%eax
   112e2:	8b 55 f4             	mov    -0xc(%ebp),%edx
   112e5:	01 d2                	add    %edx,%edx
   112e7:	01 d0                	add    %edx,%eax
   112e9:	89 45 f0             	mov    %eax,-0x10(%ebp)
    p->c=c;
   112ec:	8b 45 f0             	mov    -0x10(%ebp),%eax
   112ef:	0f b6 55 e4          	movzbl -0x1c(%ebp),%edx
   112f3:	88 10                	mov    %dl,(%eax)
    p->foreground=console->foreground;
   112f5:	8b 45 08             	mov    0x8(%ebp),%eax
   112f8:	8b 40 20             	mov    0x20(%eax),%eax
   112fb:	c1 e0 04             	shl    $0x4,%eax
   112fe:	c0 f8 04             	sar    $0x4,%al
   11301:	8b 55 f0             	mov    -0x10(%ebp),%edx
   11304:	83 e0 0f             	and    $0xf,%eax
   11307:	89 c1                	mov    %eax,%ecx
   11309:	0f b6 42 01          	movzbl 0x1(%edx),%eax
   1130d:	83 e0 f0             	and    $0xfffffff0,%eax
   11310:	09 c8                	or     %ecx,%eax
   11312:	88 42 01             	mov    %al,0x1(%edx)
    p->background=console->background;
   11315:	8b 45 08             	mov    0x8(%ebp),%eax
   11318:	8b 40 24             	mov    0x24(%eax),%eax
   1131b:	c1 e0 05             	shl    $0x5,%eax
   1131e:	c0 f8 05             	sar    $0x5,%al
   11321:	8b 55 f0             	mov    -0x10(%ebp),%edx
   11324:	83 e0 07             	and    $0x7,%eax
   11327:	c1 e0 04             	shl    $0x4,%eax
   1132a:	89 c1                	mov    %eax,%ecx
   1132c:	0f b6 42 01          	movzbl 0x1(%edx),%eax
   11330:	83 e0 8f             	and    $0xffffff8f,%eax
   11333:	09 c8                	or     %ecx,%eax
   11335:	88 42 01             	mov    %al,0x1(%edx)
    move_forward(console,1);
   11338:	83 ec 08             	sub    $0x8,%esp
   1133b:	6a 01                	push   $0x1
   1133d:	ff 75 08             	pushl  0x8(%ebp)
   11340:	e8 fc fe ff ff       	call   11241 <move_forward>
   11345:	83 c4 10             	add    $0x10,%esp
}
   11348:	90                   	nop
   11349:	c9                   	leave  
   1134a:	c3                   	ret    

0001134b <move_backword>:
static int move_backword(console_t*console,int n){
   1134b:	55                   	push   %ebp
   1134c:	89 e5                	mov    %esp,%ebp
   1134e:	83 ec 10             	sub    $0x10,%esp
    int status=-1;
   11351:	c7 45 fc ff ff ff ff 	movl   $0xffffffff,-0x4(%ebp)
    for(int i=0;i<n;i++){
   11358:	c7 45 f8 00 00 00 00 	movl   $0x0,-0x8(%ebp)
   1135f:	eb 55                	jmp    113b6 <move_backword+0x6b>
        if(console->cursor_col>0){
   11361:	8b 45 08             	mov    0x8(%ebp),%eax
   11364:	8b 40 0c             	mov    0xc(%eax),%eax
   11367:	85 c0                	test   %eax,%eax
   11369:	7e 18                	jle    11383 <move_backword+0x38>
            console->cursor_col--;
   1136b:	8b 45 08             	mov    0x8(%ebp),%eax
   1136e:	8b 40 0c             	mov    0xc(%eax),%eax
   11371:	8d 50 ff             	lea    -0x1(%eax),%edx
   11374:	8b 45 08             	mov    0x8(%ebp),%eax
   11377:	89 50 0c             	mov    %edx,0xc(%eax)
            status=0;
   1137a:	c7 45 fc 00 00 00 00 	movl   $0x0,-0x4(%ebp)
   11381:	eb 2f                	jmp    113b2 <move_backword+0x67>
        }else{
            if(console->cursor_row>0){
   11383:	8b 45 08             	mov    0x8(%ebp),%eax
   11386:	8b 40 08             	mov    0x8(%eax),%eax
   11389:	85 c0                	test   %eax,%eax
   1138b:	7e 25                	jle    113b2 <move_backword+0x67>
                console->cursor_row--;
   1138d:	8b 45 08             	mov    0x8(%ebp),%eax
   11390:	8b 40 08             	mov    0x8(%eax),%eax
   11393:	8d 50 ff             	lea    -0x1(%eax),%edx
   11396:	8b 45 08             	mov    0x8(%ebp),%eax
   11399:	89 50 08             	mov    %edx,0x8(%eax)
                console->cursor_col=console->display_cols-1;
   1139c:	8b 45 08             	mov    0x8(%ebp),%eax
   1139f:	8b 40 14             	mov    0x14(%eax),%eax
   113a2:	8d 50 ff             	lea    -0x1(%eax),%edx
   113a5:	8b 45 08             	mov    0x8(%ebp),%eax
   113a8:	89 50 0c             	mov    %edx,0xc(%eax)
                status=0;
   113ab:	c7 45 fc 00 00 00 00 	movl   $0x0,-0x4(%ebp)
    p->background=console->background;
    move_forward(console,1);
}
static int move_backword(console_t*console,int n){
    int status=-1;
    for(int i=0;i<n;i++){
   113b2:	83 45 f8 01          	addl   $0x1,-0x8(%ebp)
   113b6:	8b 45 f8             	mov    -0x8(%ebp),%eax
   113b9:	3b 45 0c             	cmp    0xc(%ebp),%eax
   113bc:	7c a3                	jl     11361 <move_backword+0x16>
                console->cursor_col=console->display_cols-1;
                status=0;
            }
        }
    }
    return status;
   113be:	8b 45 fc             	mov    -0x4(%ebp),%eax
}
   113c1:	c9                   	leave  
   113c2:	c3                   	ret    

000113c3 <clear_display>:
static void clear_display(console_t*console){
   113c3:	55                   	push   %ebp
   113c4:	89 e5                	mov    %esp,%ebp
   113c6:	83 ec 10             	sub    $0x10,%esp
    int size=console->display_cols*console->display_rows;
   113c9:	8b 45 08             	mov    0x8(%ebp),%eax
   113cc:	8b 50 14             	mov    0x14(%eax),%edx
   113cf:	8b 45 08             	mov    0x8(%ebp),%eax
   113d2:	8b 40 10             	mov    0x10(%eax),%eax
   113d5:	0f af c2             	imul   %edx,%eax
   113d8:	89 45 f8             	mov    %eax,-0x8(%ebp)
    for(int i=0;i<size;i++){
   113db:	c7 45 fc 00 00 00 00 	movl   $0x0,-0x4(%ebp)
   113e2:	eb 5c                	jmp    11440 <clear_display+0x7d>
        disp_char_t*p=(disp_char_t*)(console->disp_base)+i;
   113e4:	8b 45 08             	mov    0x8(%ebp),%eax
   113e7:	8b 00                	mov    (%eax),%eax
   113e9:	8b 55 fc             	mov    -0x4(%ebp),%edx
   113ec:	01 d2                	add    %edx,%edx
   113ee:	01 d0                	add    %edx,%eax
   113f0:	89 45 f4             	mov    %eax,-0xc(%ebp)
        p->c=' ';
   113f3:	8b 45 f4             	mov    -0xc(%ebp),%eax
   113f6:	c6 00 20             	movb   $0x20,(%eax)
        p->foreground=console->foreground;
   113f9:	8b 45 08             	mov    0x8(%ebp),%eax
   113fc:	8b 40 20             	mov    0x20(%eax),%eax
   113ff:	c1 e0 04             	shl    $0x4,%eax
   11402:	c0 f8 04             	sar    $0x4,%al
   11405:	8b 55 f4             	mov    -0xc(%ebp),%edx
   11408:	83 e0 0f             	and    $0xf,%eax
   1140b:	89 c1                	mov    %eax,%ecx
   1140d:	0f b6 42 01          	movzbl 0x1(%edx),%eax
   11411:	83 e0 f0             	and    $0xfffffff0,%eax
   11414:	09 c8                	or     %ecx,%eax
   11416:	88 42 01             	mov    %al,0x1(%edx)
        p->background=console->background;
   11419:	8b 45 08             	mov    0x8(%ebp),%eax
   1141c:	8b 40 24             	mov    0x24(%eax),%eax
   1141f:	c1 e0 05             	shl    $0x5,%eax
   11422:	c0 f8 05             	sar    $0x5,%al
   11425:	8b 55 f4             	mov    -0xc(%ebp),%edx
   11428:	83 e0 07             	and    $0x7,%eax
   1142b:	c1 e0 04             	shl    $0x4,%eax
   1142e:	89 c1                	mov    %eax,%ecx
   11430:	0f b6 42 01          	movzbl 0x1(%edx),%eax
   11434:	83 e0 8f             	and    $0xffffff8f,%eax
   11437:	09 c8                	or     %ecx,%eax
   11439:	88 42 01             	mov    %al,0x1(%edx)
    }
    return status;
}
static void clear_display(console_t*console){
    int size=console->display_cols*console->display_rows;
    for(int i=0;i<size;i++){
   1143c:	83 45 fc 01          	addl   $0x1,-0x4(%ebp)
   11440:	8b 45 fc             	mov    -0x4(%ebp),%eax
   11443:	3b 45 f8             	cmp    -0x8(%ebp),%eax
   11446:	7c 9c                	jl     113e4 <clear_display+0x21>
        disp_char_t*p=(disp_char_t*)(console->disp_base)+i;
        p->c=' ';
        p->foreground=console->foreground;
        p->background=console->background;
    }
}
   11448:	90                   	nop
   11449:	c9                   	leave  
   1144a:	c3                   	ret    

0001144b <console_init>:
int console_init(void){
   1144b:	55                   	push   %ebp
   1144c:	89 e5                	mov    %esp,%ebp
   1144e:	83 ec 10             	sub    $0x10,%esp
    for(int i=0;i<CONSOLE_NR;i++){
   11451:	c7 45 fc 00 00 00 00 	movl   $0x0,-0x4(%ebp)
   11458:	e9 d9 00 00 00       	jmp    11536 <console_init+0xeb>
        console_buf[i].disp_base=(disp_char_t *)CONSOLE_DISP_ADDR;
   1145d:	8b 45 fc             	mov    -0x4(%ebp),%eax
   11460:	6b c0 54             	imul   $0x54,%eax,%eax
   11463:	05 20 37 01 00       	add    $0x13720,%eax
   11468:	c7 00 00 80 0b 00    	movl   $0xb8000,(%eax)
        console_buf[i].display_cols=CONSOLE_COL_MAX;
   1146e:	8b 45 fc             	mov    -0x4(%ebp),%eax
   11471:	6b c0 54             	imul   $0x54,%eax,%eax
   11474:	05 34 37 01 00       	add    $0x13734,%eax
   11479:	c7 00 50 00 00 00    	movl   $0x50,(%eax)
        console_buf[i].display_rows=CONSOLE_ROW_MAX;
   1147f:	8b 45 fc             	mov    -0x4(%ebp),%eax
   11482:	6b c0 54             	imul   $0x54,%eax,%eax
   11485:	05 30 37 01 00       	add    $0x13730,%eax
   1148a:	c7 00 19 00 00 00    	movl   $0x19,(%eax)
        int current_pos=read_cursor_pos();
   11490:	e8 d5 fb ff ff       	call   1106a <read_cursor_pos>
   11495:	89 45 f8             	mov    %eax,-0x8(%ebp)
        console_buf[i].cursor_row=current_pos/console_buf[i].display_cols;
   11498:	8b 45 fc             	mov    -0x4(%ebp),%eax
   1149b:	6b c0 54             	imul   $0x54,%eax,%eax
   1149e:	05 34 37 01 00       	add    $0x13734,%eax
   114a3:	8b 08                	mov    (%eax),%ecx
   114a5:	8b 45 f8             	mov    -0x8(%ebp),%eax
   114a8:	99                   	cltd   
   114a9:	f7 f9                	idiv   %ecx
   114ab:	89 c2                	mov    %eax,%edx
   114ad:	8b 45 fc             	mov    -0x4(%ebp),%eax
   114b0:	6b c0 54             	imul   $0x54,%eax,%eax
   114b3:	05 28 37 01 00       	add    $0x13728,%eax
   114b8:	89 10                	mov    %edx,(%eax)
        console_buf[i].cursor_col=current_pos%console_buf[i].display_cols;
   114ba:	8b 45 fc             	mov    -0x4(%ebp),%eax
   114bd:	6b c0 54             	imul   $0x54,%eax,%eax
   114c0:	05 34 37 01 00       	add    $0x13734,%eax
   114c5:	8b 08                	mov    (%eax),%ecx
   114c7:	8b 45 f8             	mov    -0x8(%ebp),%eax
   114ca:	99                   	cltd   
   114cb:	f7 f9                	idiv   %ecx
   114cd:	8b 45 fc             	mov    -0x4(%ebp),%eax
   114d0:	6b c0 54             	imul   $0x54,%eax,%eax
   114d3:	05 2c 37 01 00       	add    $0x1372c,%eax
   114d8:	89 10                	mov    %edx,(%eax)
        console_buf[i].old_cursor_col=console_buf[i].cursor_col;
   114da:	8b 45 fc             	mov    -0x4(%ebp),%eax
   114dd:	6b c0 54             	imul   $0x54,%eax,%eax
   114e0:	05 2c 37 01 00       	add    $0x1372c,%eax
   114e5:	8b 00                	mov    (%eax),%eax
   114e7:	8b 55 fc             	mov    -0x4(%ebp),%edx
   114ea:	6b d2 54             	imul   $0x54,%edx,%edx
   114ed:	81 c2 3c 37 01 00    	add    $0x1373c,%edx
   114f3:	89 02                	mov    %eax,(%edx)
        console_buf[i].old_cursor_row=console_buf[i].cursor_row;
   114f5:	8b 45 fc             	mov    -0x4(%ebp),%eax
   114f8:	6b c0 54             	imul   $0x54,%eax,%eax
   114fb:	05 28 37 01 00       	add    $0x13728,%eax
   11500:	8b 00                	mov    (%eax),%eax
   11502:	8b 55 fc             	mov    -0x4(%ebp),%edx
   11505:	6b d2 54             	imul   $0x54,%edx,%edx
   11508:	81 c2 38 37 01 00    	add    $0x13738,%edx
   1150e:	89 02                	mov    %eax,(%edx)
        console_buf[i].foreground=COLOR_White;
   11510:	8b 45 fc             	mov    -0x4(%ebp),%eax
   11513:	6b c0 54             	imul   $0x54,%eax,%eax
   11516:	05 40 37 01 00       	add    $0x13740,%eax
   1151b:	c7 00 0f 00 00 00    	movl   $0xf,(%eax)
        console_buf[i].background=COLOR_Black;
   11521:	8b 45 fc             	mov    -0x4(%ebp),%eax
   11524:	6b c0 54             	imul   $0x54,%eax,%eax
   11527:	05 44 37 01 00       	add    $0x13744,%eax
   1152c:	c7 00 00 00 00 00    	movl   $0x0,(%eax)
        p->foreground=console->foreground;
        p->background=console->background;
    }
}
int console_init(void){
    for(int i=0;i<CONSOLE_NR;i++){
   11532:	83 45 fc 01          	addl   $0x1,-0x4(%ebp)
   11536:	83 7d fc 00          	cmpl   $0x0,-0x4(%ebp)
   1153a:	0f 8e 1d ff ff ff    	jle    1145d <console_init+0x12>
        console_buf[i].old_cursor_col=console_buf[i].cursor_col;
        console_buf[i].old_cursor_row=console_buf[i].cursor_row;
        console_buf[i].foreground=COLOR_White;
        console_buf[i].background=COLOR_Black;
    }
    return 0;
   11540:	b8 00 00 00 00       	mov    $0x0,%eax
}
   11545:	c9                   	leave  
   11546:	c3                   	ret    

00011547 <console_write>:
int console_write(int dev,char *data,int len){
   11547:	55                   	push   %ebp
   11548:	89 e5                	mov    %esp,%ebp

}
   1154a:	90                   	nop
   1154b:	5d                   	pop    %ebp
   1154c:	c3                   	ret    

0001154d <console_close>:
void console_close(int dev){
   1154d:	55                   	push   %ebp
   1154e:	89 e5                	mov    %esp,%ebp

   11550:	90                   	nop
   11551:	5d                   	pop    %ebp
   11552:	c3                   	ret    

00011553 <list_count>:
}list_t;
void list_init(list_t *list);
static inline int list_is_empty(list_t *list){
    return list->count == 0;
}
static inline int list_count(list_t *list){
   11553:	55                   	push   %ebp
   11554:	89 e5                	mov    %esp,%ebp
    return list->count;
   11556:	8b 45 08             	mov    0x8(%ebp),%eax
   11559:	8b 40 08             	mov    0x8(%eax),%eax
}
   1155c:	5d                   	pop    %ebp
   1155d:	c3                   	ret    

0001155e <mutex_init>:
#include "cpu/irq.h"
#include "ipc/mutex.h"

void mutex_init(mutex_t *mutex){
   1155e:	55                   	push   %ebp
   1155f:	89 e5                	mov    %esp,%ebp
   11561:	83 ec 08             	sub    $0x8,%esp
    mutex->locked_count=0;
   11564:	8b 45 08             	mov    0x8(%ebp),%eax
   11567:	c7 40 04 00 00 00 00 	movl   $0x0,0x4(%eax)
    mutex->task=(task_t*)0;
   1156e:	8b 45 08             	mov    0x8(%ebp),%eax
   11571:	c7 00 00 00 00 00    	movl   $0x0,(%eax)
    list_init(&mutex->wait_list);
   11577:	8b 45 08             	mov    0x8(%ebp),%eax
   1157a:	83 c0 08             	add    $0x8,%eax
   1157d:	83 ec 0c             	sub    $0xc,%esp
   11580:	50                   	push   %eax
   11581:	e8 47 06 00 00       	call   11bcd <list_init>
   11586:	83 c4 10             	add    $0x10,%esp
}
   11589:	90                   	nop
   1158a:	c9                   	leave  
   1158b:	c3                   	ret    

0001158c <mutex_lock>:

void mutex_lock(mutex_t *mutex){
   1158c:	55                   	push   %ebp
   1158d:	89 e5                	mov    %esp,%ebp
   1158f:	83 ec 18             	sub    $0x18,%esp
    //如果互斥锁已经被锁住，则将当前任务加入等待队列
    irq_state_t irq_state=irq_enter_protection();
   11592:	e8 13 f9 ff ff       	call   10eaa <irq_enter_protection>
   11597:	89 45 f4             	mov    %eax,-0xc(%ebp)
    task_t*curr=task_current();
   1159a:	e8 ca 0c 00 00       	call   12269 <task_current>
   1159f:	89 45 f0             	mov    %eax,-0x10(%ebp)
    if(mutex->locked_count==0){
   115a2:	8b 45 08             	mov    0x8(%ebp),%eax
   115a5:	8b 40 04             	mov    0x4(%eax),%eax
   115a8:	85 c0                	test   %eax,%eax
   115aa:	75 14                	jne    115c0 <mutex_lock+0x34>
        mutex->locked_count=1;
   115ac:	8b 45 08             	mov    0x8(%ebp),%eax
   115af:	c7 40 04 01 00 00 00 	movl   $0x1,0x4(%eax)
        mutex->task=curr;
   115b6:	8b 45 08             	mov    0x8(%ebp),%eax
   115b9:	8b 55 f0             	mov    -0x10(%ebp),%edx
   115bc:	89 10                	mov    %edx,(%eax)
   115be:	eb 52                	jmp    11612 <mutex_lock+0x86>
    }else if(mutex->task==curr){
   115c0:	8b 45 08             	mov    0x8(%ebp),%eax
   115c3:	8b 00                	mov    (%eax),%eax
   115c5:	3b 45 f0             	cmp    -0x10(%ebp),%eax
   115c8:	75 11                	jne    115db <mutex_lock+0x4f>
        mutex->locked_count++;
   115ca:	8b 45 08             	mov    0x8(%ebp),%eax
   115cd:	8b 40 04             	mov    0x4(%eax),%eax
   115d0:	8d 50 01             	lea    0x1(%eax),%edx
   115d3:	8b 45 08             	mov    0x8(%ebp),%eax
   115d6:	89 50 04             	mov    %edx,0x4(%eax)
   115d9:	eb 37                	jmp    11612 <mutex_lock+0x86>
    }else{
        task_t*curr=task_current();
   115db:	e8 89 0c 00 00       	call   12269 <task_current>
   115e0:	89 45 ec             	mov    %eax,-0x14(%ebp)
        task_set_block(curr);
   115e3:	83 ec 0c             	sub    $0xc,%esp
   115e6:	ff 75 ec             	pushl  -0x14(%ebp)
   115e9:	e8 0b 0b 00 00       	call   120f9 <task_set_block>
   115ee:	83 c4 10             	add    $0x10,%esp
        list_insert_last(&mutex->wait_list,&curr->wait_node);
   115f1:	8b 45 ec             	mov    -0x14(%ebp),%eax
   115f4:	8d 90 a4 00 00 00    	lea    0xa4(%eax),%edx
   115fa:	8b 45 08             	mov    0x8(%ebp),%eax
   115fd:	83 c0 08             	add    $0x8,%eax
   11600:	83 ec 08             	sub    $0x8,%esp
   11603:	52                   	push   %edx
   11604:	50                   	push   %eax
   11605:	e8 43 06 00 00       	call   11c4d <list_insert_last>
   1160a:	83 c4 10             	add    $0x10,%esp
        task_dispatch();
   1160d:	e8 b4 0c 00 00       	call   122c6 <task_dispatch>
    }
    irq_leave_protection(irq_state);
   11612:	83 ec 0c             	sub    $0xc,%esp
   11615:	ff 75 f4             	pushl  -0xc(%ebp)
   11618:	e8 a5 f8 ff ff       	call   10ec2 <irq_leave_protection>
   1161d:	83 c4 10             	add    $0x10,%esp
}
   11620:	90                   	nop
   11621:	c9                   	leave  
   11622:	c3                   	ret    

00011623 <mutex_unlock>:

void mutex_unlock(mutex_t *mutex){
   11623:	55                   	push   %ebp
   11624:	89 e5                	mov    %esp,%ebp
   11626:	83 ec 18             	sub    $0x18,%esp
    irq_state_t irq_state=irq_enter_protection();
   11629:	e8 7c f8 ff ff       	call   10eaa <irq_enter_protection>
   1162e:	89 45 f4             	mov    %eax,-0xc(%ebp)
    task_t*curr=task_current();
   11631:	e8 33 0c 00 00       	call   12269 <task_current>
   11636:	89 45 f0             	mov    %eax,-0x10(%ebp)
    if(mutex->task==curr){
   11639:	8b 45 08             	mov    0x8(%ebp),%eax
   1163c:	8b 00                	mov    (%eax),%eax
   1163e:	3b 45 f0             	cmp    -0x10(%ebp),%eax
   11641:	0f 85 8a 00 00 00    	jne    116d1 <mutex_unlock+0xae>
        if(--mutex->locked_count==0){
   11647:	8b 45 08             	mov    0x8(%ebp),%eax
   1164a:	8b 40 04             	mov    0x4(%eax),%eax
   1164d:	8d 50 ff             	lea    -0x1(%eax),%edx
   11650:	8b 45 08             	mov    0x8(%ebp),%eax
   11653:	89 50 04             	mov    %edx,0x4(%eax)
   11656:	8b 45 08             	mov    0x8(%ebp),%eax
   11659:	8b 40 04             	mov    0x4(%eax),%eax
   1165c:	85 c0                	test   %eax,%eax
   1165e:	75 71                	jne    116d1 <mutex_unlock+0xae>
            mutex->task=(task_t*)0;
   11660:	8b 45 08             	mov    0x8(%ebp),%eax
   11663:	c7 00 00 00 00 00    	movl   $0x0,(%eax)
            if(list_count(&mutex->wait_list)!=0){
   11669:	8b 45 08             	mov    0x8(%ebp),%eax
   1166c:	83 c0 08             	add    $0x8,%eax
   1166f:	83 ec 0c             	sub    $0xc,%esp
   11672:	50                   	push   %eax
   11673:	e8 db fe ff ff       	call   11553 <list_count>
   11678:	83 c4 10             	add    $0x10,%esp
   1167b:	85 c0                	test   %eax,%eax
   1167d:	74 52                	je     116d1 <mutex_unlock+0xae>
                list_node_t*task_node=list_remove_first(&mutex->wait_list);
   1167f:	8b 45 08             	mov    0x8(%ebp),%eax
   11682:	83 c0 08             	add    $0x8,%eax
   11685:	83 ec 0c             	sub    $0xc,%esp
   11688:	50                   	push   %eax
   11689:	e8 20 06 00 00       	call   11cae <list_remove_first>
   1168e:	83 c4 10             	add    $0x10,%esp
   11691:	89 45 ec             	mov    %eax,-0x14(%ebp)
                task_t*task=list_node_parent(task_node,task_t,wait_node);
   11694:	83 7d ec 00          	cmpl   $0x0,-0x14(%ebp)
   11698:	74 0a                	je     116a4 <mutex_unlock+0x81>
   1169a:	8b 45 ec             	mov    -0x14(%ebp),%eax
   1169d:	2d a4 00 00 00       	sub    $0xa4,%eax
   116a2:	eb 05                	jmp    116a9 <mutex_unlock+0x86>
   116a4:	b8 00 00 00 00       	mov    $0x0,%eax
   116a9:	89 45 e8             	mov    %eax,-0x18(%ebp)
                task_set_ready(task);
   116ac:	83 ec 0c             	sub    $0xc,%esp
   116af:	ff 75 e8             	pushl  -0x18(%ebp)
   116b2:	e8 da 0a 00 00       	call   12191 <task_set_ready>
   116b7:	83 c4 10             	add    $0x10,%esp
                mutex->locked_count=1;
   116ba:	8b 45 08             	mov    0x8(%ebp),%eax
   116bd:	c7 40 04 01 00 00 00 	movl   $0x1,0x4(%eax)
                mutex->task=task;
   116c4:	8b 45 08             	mov    0x8(%ebp),%eax
   116c7:	8b 55 e8             	mov    -0x18(%ebp),%edx
   116ca:	89 10                	mov    %edx,(%eax)
                task_dispatch();
   116cc:	e8 f5 0b 00 00       	call   122c6 <task_dispatch>
            }
        }
    }
    irq_leave_protection(irq_state);
   116d1:	83 ec 0c             	sub    $0xc,%esp
   116d4:	ff 75 f4             	pushl  -0xc(%ebp)
   116d7:	e8 e6 f7 ff ff       	call   10ec2 <irq_leave_protection>
   116dc:	83 c4 10             	add    $0x10,%esp
   116df:	90                   	nop
   116e0:	c9                   	leave  
   116e1:	c3                   	ret    

000116e2 <sem_init>:
#include "cpu/irq.h"
#include "core/task.h"
#include "ipc/sem.h"

void sem_init(sem_t *sem, int count){
   116e2:	55                   	push   %ebp
   116e3:	89 e5                	mov    %esp,%ebp
   116e5:	83 ec 08             	sub    $0x8,%esp
    sem->count = count;
   116e8:	8b 45 08             	mov    0x8(%ebp),%eax
   116eb:	8b 55 0c             	mov    0xc(%ebp),%edx
   116ee:	89 10                	mov    %edx,(%eax)
    list_init(&sem->wait_list);
   116f0:	8b 45 08             	mov    0x8(%ebp),%eax
   116f3:	83 c0 04             	add    $0x4,%eax
   116f6:	83 ec 0c             	sub    $0xc,%esp
   116f9:	50                   	push   %eax
   116fa:	e8 ce 04 00 00       	call   11bcd <list_init>
   116ff:	83 c4 10             	add    $0x10,%esp
   11702:	90                   	nop
   11703:	c9                   	leave  
   11704:	c3                   	ret    

00011705 <log_init>:

//https://wiki.osdev.org/Serial_Ports
#define COM1_PORT 0x3F8


void log_init(void){
   11705:	55                   	push   %ebp
   11706:	89 e5                	mov    %esp,%ebp
    
}
   11708:	90                   	nop
   11709:	5d                   	pop    %ebp
   1170a:	c3                   	ret    

0001170b <log_printf>:


void log_printf(const char *fmt, ...){
   1170b:	55                   	push   %ebp
   1170c:	89 e5                	mov    %esp,%ebp

   1170e:	90                   	nop
   1170f:	5d                   	pop    %ebp
   11710:	c3                   	ret    

00011711 <bitmap_init>:
#include "tools/bitmap.h"
#include "tools/klib.h"

void bitmap_init(bitmap_t* bmp, uint8_t*bits,int bit_count,int init_bit){
   11711:	55                   	push   %ebp
   11712:	89 e5                	mov    %esp,%ebp
   11714:	83 ec 18             	sub    $0x18,%esp
    bmp->bits = bits;
   11717:	8b 45 08             	mov    0x8(%ebp),%eax
   1171a:	8b 55 0c             	mov    0xc(%ebp),%edx
   1171d:	89 50 04             	mov    %edx,0x4(%eax)
    bmp->bit_count = bit_count;
   11720:	8b 45 08             	mov    0x8(%ebp),%eax
   11723:	8b 55 10             	mov    0x10(%ebp),%edx
   11726:	89 10                	mov    %edx,(%eax)
    int bytes=bitmap_byte_count(bmp->bit_count);
   11728:	8b 45 08             	mov    0x8(%ebp),%eax
   1172b:	8b 00                	mov    (%eax),%eax
   1172d:	83 ec 0c             	sub    $0xc,%esp
   11730:	50                   	push   %eax
   11731:	e8 31 00 00 00       	call   11767 <bitmap_byte_count>
   11736:	83 c4 10             	add    $0x10,%esp
   11739:	89 45 f4             	mov    %eax,-0xc(%ebp)
    kernel_memset(bmp->bits,init_bit?0xFF:0,bytes);
   1173c:	83 7d 14 00          	cmpl   $0x0,0x14(%ebp)
   11740:	74 07                	je     11749 <bitmap_init+0x38>
   11742:	ba ff 00 00 00       	mov    $0xff,%edx
   11747:	eb 05                	jmp    1174e <bitmap_init+0x3d>
   11749:	ba 00 00 00 00       	mov    $0x0,%edx
   1174e:	8b 45 08             	mov    0x8(%ebp),%eax
   11751:	8b 40 04             	mov    0x4(%eax),%eax
   11754:	83 ec 04             	sub    $0x4,%esp
   11757:	ff 75 f4             	pushl  -0xc(%ebp)
   1175a:	52                   	push   %edx
   1175b:	50                   	push   %eax
   1175c:	e8 00 04 00 00       	call   11b61 <kernel_memset>
   11761:	83 c4 10             	add    $0x10,%esp
}
   11764:	90                   	nop
   11765:	c9                   	leave  
   11766:	c3                   	ret    

00011767 <bitmap_byte_count>:
int bitmap_byte_count(int bit_count){
   11767:	55                   	push   %ebp
   11768:	89 e5                	mov    %esp,%ebp
    return (bit_count+7)/8;
   1176a:	8b 45 08             	mov    0x8(%ebp),%eax
   1176d:	83 c0 07             	add    $0x7,%eax
   11770:	8d 50 07             	lea    0x7(%eax),%edx
   11773:	85 c0                	test   %eax,%eax
   11775:	0f 48 c2             	cmovs  %edx,%eax
   11778:	c1 f8 03             	sar    $0x3,%eax
}
   1177b:	5d                   	pop    %ebp
   1177c:	c3                   	ret    

0001177d <bitmap_get_bit>:
int bitmap_get_bit(bitmap_t* bmp,int bit_index){
   1177d:	55                   	push   %ebp
   1177e:	89 e5                	mov    %esp,%ebp
   11780:	53                   	push   %ebx
    return bmp->bits[bit_index>>3] & (1<<(bit_index%8));
   11781:	8b 45 08             	mov    0x8(%ebp),%eax
   11784:	8b 40 04             	mov    0x4(%eax),%eax
   11787:	8b 55 0c             	mov    0xc(%ebp),%edx
   1178a:	c1 fa 03             	sar    $0x3,%edx
   1178d:	01 d0                	add    %edx,%eax
   1178f:	0f b6 00             	movzbl (%eax),%eax
   11792:	0f b6 d8             	movzbl %al,%ebx
   11795:	8b 45 0c             	mov    0xc(%ebp),%eax
   11798:	99                   	cltd   
   11799:	c1 ea 1d             	shr    $0x1d,%edx
   1179c:	01 d0                	add    %edx,%eax
   1179e:	83 e0 07             	and    $0x7,%eax
   117a1:	29 d0                	sub    %edx,%eax
   117a3:	ba 01 00 00 00       	mov    $0x1,%edx
   117a8:	89 c1                	mov    %eax,%ecx
   117aa:	d3 e2                	shl    %cl,%edx
   117ac:	89 d0                	mov    %edx,%eax
   117ae:	21 d8                	and    %ebx,%eax
}
   117b0:	5b                   	pop    %ebx
   117b1:	5d                   	pop    %ebp
   117b2:	c3                   	ret    

000117b3 <bitmap_set_bit>:
void bitmap_set_bit(bitmap_t* bmp,int bit_index,int count,int bit){
   117b3:	55                   	push   %ebp
   117b4:	89 e5                	mov    %esp,%ebp
   117b6:	56                   	push   %esi
   117b7:	53                   	push   %ebx
   117b8:	83 ec 10             	sub    $0x10,%esp
    for(int i=0;i<count&&(bit_index<bmp->bit_count);i++,bit_index++){
   117bb:	c7 45 f4 00 00 00 00 	movl   $0x0,-0xc(%ebp)
   117c2:	e9 90 00 00 00       	jmp    11857 <bitmap_set_bit+0xa4>
        if(bit){
   117c7:	83 7d 14 00          	cmpl   $0x0,0x14(%ebp)
   117cb:	74 41                	je     1180e <bitmap_set_bit+0x5b>
            bmp->bits[bit_index>>3] |= (1<<(bit_index%8));
   117cd:	8b 45 08             	mov    0x8(%ebp),%eax
   117d0:	8b 40 04             	mov    0x4(%eax),%eax
   117d3:	8b 55 0c             	mov    0xc(%ebp),%edx
   117d6:	c1 fa 03             	sar    $0x3,%edx
   117d9:	8d 1c 10             	lea    (%eax,%edx,1),%ebx
   117dc:	8b 45 08             	mov    0x8(%ebp),%eax
   117df:	8b 40 04             	mov    0x4(%eax),%eax
   117e2:	8b 55 0c             	mov    0xc(%ebp),%edx
   117e5:	c1 fa 03             	sar    $0x3,%edx
   117e8:	01 d0                	add    %edx,%eax
   117ea:	0f b6 00             	movzbl (%eax),%eax
   117ed:	89 c6                	mov    %eax,%esi
   117ef:	8b 45 0c             	mov    0xc(%ebp),%eax
   117f2:	99                   	cltd   
   117f3:	c1 ea 1d             	shr    $0x1d,%edx
   117f6:	01 d0                	add    %edx,%eax
   117f8:	83 e0 07             	and    $0x7,%eax
   117fb:	29 d0                	sub    %edx,%eax
   117fd:	ba 01 00 00 00       	mov    $0x1,%edx
   11802:	89 c1                	mov    %eax,%ecx
   11804:	d3 e2                	shl    %cl,%edx
   11806:	89 d0                	mov    %edx,%eax
   11808:	09 f0                	or     %esi,%eax
   1180a:	88 03                	mov    %al,(%ebx)
   1180c:	eb 41                	jmp    1184f <bitmap_set_bit+0x9c>
        }else{
            bmp->bits[bit_index>>3] &= ~(1<<(bit_index%8));
   1180e:	8b 45 08             	mov    0x8(%ebp),%eax
   11811:	8b 40 04             	mov    0x4(%eax),%eax
   11814:	8b 55 0c             	mov    0xc(%ebp),%edx
   11817:	c1 fa 03             	sar    $0x3,%edx
   1181a:	8d 1c 10             	lea    (%eax,%edx,1),%ebx
   1181d:	8b 45 08             	mov    0x8(%ebp),%eax
   11820:	8b 40 04             	mov    0x4(%eax),%eax
   11823:	8b 55 0c             	mov    0xc(%ebp),%edx
   11826:	c1 fa 03             	sar    $0x3,%edx
   11829:	01 d0                	add    %edx,%eax
   1182b:	0f b6 00             	movzbl (%eax),%eax
   1182e:	89 c6                	mov    %eax,%esi
   11830:	8b 45 0c             	mov    0xc(%ebp),%eax
   11833:	99                   	cltd   
   11834:	c1 ea 1d             	shr    $0x1d,%edx
   11837:	01 d0                	add    %edx,%eax
   11839:	83 e0 07             	and    $0x7,%eax
   1183c:	29 d0                	sub    %edx,%eax
   1183e:	ba 01 00 00 00       	mov    $0x1,%edx
   11843:	89 c1                	mov    %eax,%ecx
   11845:	d3 e2                	shl    %cl,%edx
   11847:	89 d0                	mov    %edx,%eax
   11849:	f7 d0                	not    %eax
   1184b:	21 f0                	and    %esi,%eax
   1184d:	88 03                	mov    %al,(%ebx)
}
int bitmap_get_bit(bitmap_t* bmp,int bit_index){
    return bmp->bits[bit_index>>3] & (1<<(bit_index%8));
}
void bitmap_set_bit(bitmap_t* bmp,int bit_index,int count,int bit){
    for(int i=0;i<count&&(bit_index<bmp->bit_count);i++,bit_index++){
   1184f:	83 45 f4 01          	addl   $0x1,-0xc(%ebp)
   11853:	83 45 0c 01          	addl   $0x1,0xc(%ebp)
   11857:	8b 45 f4             	mov    -0xc(%ebp),%eax
   1185a:	3b 45 10             	cmp    0x10(%ebp),%eax
   1185d:	7d 0e                	jge    1186d <bitmap_set_bit+0xba>
   1185f:	8b 45 08             	mov    0x8(%ebp),%eax
   11862:	8b 00                	mov    (%eax),%eax
   11864:	3b 45 0c             	cmp    0xc(%ebp),%eax
   11867:	0f 8f 5a ff ff ff    	jg     117c7 <bitmap_set_bit+0x14>
            bmp->bits[bit_index>>3] |= (1<<(bit_index%8));
        }else{
            bmp->bits[bit_index>>3] &= ~(1<<(bit_index%8));
        }
    }
}
   1186d:	90                   	nop
   1186e:	83 c4 10             	add    $0x10,%esp
   11871:	5b                   	pop    %ebx
   11872:	5e                   	pop    %esi
   11873:	5d                   	pop    %ebp
   11874:	c3                   	ret    

00011875 <bitmap_is_set>:
int bitmap_is_set(bitmap_t* bmp,int bit_index){
   11875:	55                   	push   %ebp
   11876:	89 e5                	mov    %esp,%ebp
    return bitmap_get_bit(bmp,bit_index)?1:0;
   11878:	ff 75 0c             	pushl  0xc(%ebp)
   1187b:	ff 75 08             	pushl  0x8(%ebp)
   1187e:	e8 fa fe ff ff       	call   1177d <bitmap_get_bit>
   11883:	83 c4 08             	add    $0x8,%esp
   11886:	85 c0                	test   %eax,%eax
   11888:	0f 95 c0             	setne  %al
   1188b:	0f b6 c0             	movzbl %al,%eax
}
   1188e:	c9                   	leave  
   1188f:	c3                   	ret    

00011890 <bitmap_alloc_nbits>:
int bitmap_alloc_nbits(bitmap_t* bmp,int bit,int count){
   11890:	55                   	push   %ebp
   11891:	89 e5                	mov    %esp,%ebp
   11893:	83 ec 10             	sub    $0x10,%esp
    int search_idx=0;
   11896:	c7 45 fc 00 00 00 00 	movl   $0x0,-0x4(%ebp)
    int ok_idx=0;
   1189d:	c7 45 f8 00 00 00 00 	movl   $0x0,-0x8(%ebp)
    while(search_idx<bmp->bit_count){
   118a4:	eb 7e                	jmp    11924 <bitmap_alloc_nbits+0x94>
        if(bitmap_get_bit(bmp,search_idx)!=bit){
   118a6:	ff 75 fc             	pushl  -0x4(%ebp)
   118a9:	ff 75 08             	pushl  0x8(%ebp)
   118ac:	e8 cc fe ff ff       	call   1177d <bitmap_get_bit>
   118b1:	83 c4 08             	add    $0x8,%esp
   118b4:	3b 45 0c             	cmp    0xc(%ebp),%eax
   118b7:	74 06                	je     118bf <bitmap_alloc_nbits+0x2f>
            search_idx++;
   118b9:	83 45 fc 01          	addl   $0x1,-0x4(%ebp)
            continue;
   118bd:	eb 65                	jmp    11924 <bitmap_alloc_nbits+0x94>
        }
        ok_idx=search_idx;
   118bf:	8b 45 fc             	mov    -0x4(%ebp),%eax
   118c2:	89 45 f8             	mov    %eax,-0x8(%ebp)
        int i;
        for(i;i<count&&(search_idx<bmp->bit_count);i++){
   118c5:	eb 27                	jmp    118ee <bitmap_alloc_nbits+0x5e>
            if(bitmap_get_bit(bmp,search_idx++)!=bit){
   118c7:	8b 45 fc             	mov    -0x4(%ebp),%eax
   118ca:	8d 50 01             	lea    0x1(%eax),%edx
   118cd:	89 55 fc             	mov    %edx,-0x4(%ebp)
   118d0:	50                   	push   %eax
   118d1:	ff 75 08             	pushl  0x8(%ebp)
   118d4:	e8 a4 fe ff ff       	call   1177d <bitmap_get_bit>
   118d9:	83 c4 08             	add    $0x8,%esp
   118dc:	3b 45 0c             	cmp    0xc(%ebp),%eax
   118df:	74 09                	je     118ea <bitmap_alloc_nbits+0x5a>
                ok_idx=-1;
   118e1:	c7 45 f8 ff ff ff ff 	movl   $0xffffffff,-0x8(%ebp)
                break;
   118e8:	eb 16                	jmp    11900 <bitmap_alloc_nbits+0x70>
            search_idx++;
            continue;
        }
        ok_idx=search_idx;
        int i;
        for(i;i<count&&(search_idx<bmp->bit_count);i++){
   118ea:	83 45 f4 01          	addl   $0x1,-0xc(%ebp)
   118ee:	8b 45 f4             	mov    -0xc(%ebp),%eax
   118f1:	3b 45 10             	cmp    0x10(%ebp),%eax
   118f4:	7d 0a                	jge    11900 <bitmap_alloc_nbits+0x70>
   118f6:	8b 45 08             	mov    0x8(%ebp),%eax
   118f9:	8b 00                	mov    (%eax),%eax
   118fb:	3b 45 fc             	cmp    -0x4(%ebp),%eax
   118fe:	7f c7                	jg     118c7 <bitmap_alloc_nbits+0x37>
            if(bitmap_get_bit(bmp,search_idx++)!=bit){
                ok_idx=-1;
                break;
            }
        }
        if(i>=count){
   11900:	8b 45 f4             	mov    -0xc(%ebp),%eax
   11903:	3b 45 10             	cmp    0x10(%ebp),%eax
   11906:	7c 1c                	jl     11924 <bitmap_alloc_nbits+0x94>
            bitmap_set_bit(bmp,ok_idx,count,~bit);
   11908:	8b 45 0c             	mov    0xc(%ebp),%eax
   1190b:	f7 d0                	not    %eax
   1190d:	50                   	push   %eax
   1190e:	ff 75 10             	pushl  0x10(%ebp)
   11911:	ff 75 f8             	pushl  -0x8(%ebp)
   11914:	ff 75 08             	pushl  0x8(%ebp)
   11917:	e8 97 fe ff ff       	call   117b3 <bitmap_set_bit>
   1191c:	83 c4 10             	add    $0x10,%esp
            return ok_idx;
   1191f:	8b 45 f8             	mov    -0x8(%ebp),%eax
   11922:	eb 13                	jmp    11937 <bitmap_alloc_nbits+0xa7>
    return bitmap_get_bit(bmp,bit_index)?1:0;
}
int bitmap_alloc_nbits(bitmap_t* bmp,int bit,int count){
    int search_idx=0;
    int ok_idx=0;
    while(search_idx<bmp->bit_count){
   11924:	8b 45 08             	mov    0x8(%ebp),%eax
   11927:	8b 00                	mov    (%eax),%eax
   11929:	3b 45 fc             	cmp    -0x4(%ebp),%eax
   1192c:	0f 8f 74 ff ff ff    	jg     118a6 <bitmap_alloc_nbits+0x16>
            bitmap_set_bit(bmp,ok_idx,count,~bit);
            return ok_idx;
        }
            
    }
    return -1;
   11932:	b8 ff ff ff ff       	mov    $0xffffffff,%eax
   11937:	c9                   	leave  
   11938:	c3                   	ret    

00011939 <strings_count>:
#include"tools/klib.h"
#include"comm/cpu_instr.h"
int strings_count(char**start){
   11939:	55                   	push   %ebp
   1193a:	89 e5                	mov    %esp,%ebp
   1193c:	83 ec 10             	sub    $0x10,%esp
    //字符串的数量
    int count=0;
   1193f:	c7 45 fc 00 00 00 00 	movl   $0x0,-0x4(%ebp)
    if(start){
   11946:	83 7d 08 00          	cmpl   $0x0,0x8(%ebp)
   1194a:	74 15                	je     11961 <strings_count+0x28>
        while(*start++){
   1194c:	eb 04                	jmp    11952 <strings_count+0x19>
            count++;
   1194e:	83 45 fc 01          	addl   $0x1,-0x4(%ebp)
#include"comm/cpu_instr.h"
int strings_count(char**start){
    //字符串的数量
    int count=0;
    if(start){
        while(*start++){
   11952:	8b 45 08             	mov    0x8(%ebp),%eax
   11955:	8d 50 04             	lea    0x4(%eax),%edx
   11958:	89 55 08             	mov    %edx,0x8(%ebp)
   1195b:	8b 00                	mov    (%eax),%eax
   1195d:	85 c0                	test   %eax,%eax
   1195f:	75 ed                	jne    1194e <strings_count+0x15>
            count++;
        }
    }
    return count;
   11961:	8b 45 fc             	mov    -0x4(%ebp),%eax
}
   11964:	c9                   	leave  
   11965:	c3                   	ret    

00011966 <get_file_name>:
char*get_file_name(char*name){
   11966:	55                   	push   %ebp
   11967:	89 e5                	mov    %esp,%ebp
   11969:	83 ec 10             	sub    $0x10,%esp
    char*p=name;
   1196c:	8b 45 08             	mov    0x8(%ebp),%eax
   1196f:	89 45 fc             	mov    %eax,-0x4(%ebp)
    while(*p!='\0'){
   11972:	eb 04                	jmp    11978 <get_file_name+0x12>
        p++;
   11974:	83 45 fc 01          	addl   $0x1,-0x4(%ebp)
    }
    return count;
}
char*get_file_name(char*name){
    char*p=name;
    while(*p!='\0'){
   11978:	8b 45 fc             	mov    -0x4(%ebp),%eax
   1197b:	0f b6 00             	movzbl (%eax),%eax
   1197e:	84 c0                	test   %al,%al
   11980:	75 f2                	jne    11974 <get_file_name+0xe>
        p++;
    }
    while(p>name&&*p!='/'&&*p!='\\'){
   11982:	eb 04                	jmp    11988 <get_file_name+0x22>
        p--;
   11984:	83 6d fc 01          	subl   $0x1,-0x4(%ebp)
char*get_file_name(char*name){
    char*p=name;
    while(*p!='\0'){
        p++;
    }
    while(p>name&&*p!='/'&&*p!='\\'){
   11988:	8b 45 fc             	mov    -0x4(%ebp),%eax
   1198b:	3b 45 08             	cmp    0x8(%ebp),%eax
   1198e:	76 14                	jbe    119a4 <get_file_name+0x3e>
   11990:	8b 45 fc             	mov    -0x4(%ebp),%eax
   11993:	0f b6 00             	movzbl (%eax),%eax
   11996:	3c 2f                	cmp    $0x2f,%al
   11998:	74 0a                	je     119a4 <get_file_name+0x3e>
   1199a:	8b 45 fc             	mov    -0x4(%ebp),%eax
   1199d:	0f b6 00             	movzbl (%eax),%eax
   119a0:	3c 5c                	cmp    $0x5c,%al
   119a2:	75 e0                	jne    11984 <get_file_name+0x1e>
        p--;
    }
    return p+1;
   119a4:	8b 45 fc             	mov    -0x4(%ebp),%eax
   119a7:	83 c0 01             	add    $0x1,%eax
}
   119aa:	c9                   	leave  
   119ab:	c3                   	ret    

000119ac <kernel_strcpy>:

void kernel_strcpy(char*dest,char*src){
   119ac:	55                   	push   %ebp
   119ad:	89 e5                	mov    %esp,%ebp
    if(!dest||!src){
   119af:	83 7d 08 00          	cmpl   $0x0,0x8(%ebp)
   119b3:	74 3c                	je     119f1 <kernel_strcpy+0x45>
   119b5:	83 7d 0c 00          	cmpl   $0x0,0xc(%ebp)
   119b9:	74 36                	je     119f1 <kernel_strcpy+0x45>
        return ;
    }
    while(*src!='\0'&&*dest!='\0'){  
   119bb:	eb 17                	jmp    119d4 <kernel_strcpy+0x28>
        *dest++=*src++;
   119bd:	8b 45 08             	mov    0x8(%ebp),%eax
   119c0:	8d 50 01             	lea    0x1(%eax),%edx
   119c3:	89 55 08             	mov    %edx,0x8(%ebp)
   119c6:	8b 55 0c             	mov    0xc(%ebp),%edx
   119c9:	8d 4a 01             	lea    0x1(%edx),%ecx
   119cc:	89 4d 0c             	mov    %ecx,0xc(%ebp)
   119cf:	0f b6 12             	movzbl (%edx),%edx
   119d2:	88 10                	mov    %dl,(%eax)

void kernel_strcpy(char*dest,char*src){
    if(!dest||!src){
        return ;
    }
    while(*src!='\0'&&*dest!='\0'){  
   119d4:	8b 45 0c             	mov    0xc(%ebp),%eax
   119d7:	0f b6 00             	movzbl (%eax),%eax
   119da:	84 c0                	test   %al,%al
   119dc:	74 0a                	je     119e8 <kernel_strcpy+0x3c>
   119de:	8b 45 08             	mov    0x8(%ebp),%eax
   119e1:	0f b6 00             	movzbl (%eax),%eax
   119e4:	84 c0                	test   %al,%al
   119e6:	75 d5                	jne    119bd <kernel_strcpy+0x11>
        *dest++=*src++;
    }
    *dest='\0';
   119e8:	8b 45 08             	mov    0x8(%ebp),%eax
   119eb:	c6 00 00             	movb   $0x0,(%eax)
    return ;
   119ee:	90                   	nop
   119ef:	eb 01                	jmp    119f2 <kernel_strcpy+0x46>
    return p+1;
}

void kernel_strcpy(char*dest,char*src){
    if(!dest||!src){
        return ;
   119f1:	90                   	nop
    while(*src!='\0'&&*dest!='\0'){  
        *dest++=*src++;
    }
    *dest='\0';
    return ;
}
   119f2:	5d                   	pop    %ebp
   119f3:	c3                   	ret    

000119f4 <kernel_strncpy>:
void kernel_strncpy(char*dest,char*src,int size){
   119f4:	55                   	push   %ebp
   119f5:	89 e5                	mov    %esp,%ebp
   119f7:	83 ec 10             	sub    $0x10,%esp
    if(!dest||!src){
   119fa:	83 7d 08 00          	cmpl   $0x0,0x8(%ebp)
   119fe:	74 5c                	je     11a5c <kernel_strncpy+0x68>
   11a00:	83 7d 0c 00          	cmpl   $0x0,0xc(%ebp)
   11a04:	74 56                	je     11a5c <kernel_strncpy+0x68>
        return ;
    }
    char *d=dest;
   11a06:	8b 45 08             	mov    0x8(%ebp),%eax
   11a09:	89 45 fc             	mov    %eax,-0x4(%ebp)
    const char*s=src;
   11a0c:	8b 45 0c             	mov    0xc(%ebp),%eax
   11a0f:	89 45 f8             	mov    %eax,-0x8(%ebp)
    while(*s!='\0'&&size--){
   11a12:	eb 17                	jmp    11a2b <kernel_strncpy+0x37>
        *d++=*s++;
   11a14:	8b 45 fc             	mov    -0x4(%ebp),%eax
   11a17:	8d 50 01             	lea    0x1(%eax),%edx
   11a1a:	89 55 fc             	mov    %edx,-0x4(%ebp)
   11a1d:	8b 55 f8             	mov    -0x8(%ebp),%edx
   11a20:	8d 4a 01             	lea    0x1(%edx),%ecx
   11a23:	89 4d f8             	mov    %ecx,-0x8(%ebp)
   11a26:	0f b6 12             	movzbl (%edx),%edx
   11a29:	88 10                	mov    %dl,(%eax)
    if(!dest||!src){
        return ;
    }
    char *d=dest;
    const char*s=src;
    while(*s!='\0'&&size--){
   11a2b:	8b 45 f8             	mov    -0x8(%ebp),%eax
   11a2e:	0f b6 00             	movzbl (%eax),%eax
   11a31:	84 c0                	test   %al,%al
   11a33:	74 0d                	je     11a42 <kernel_strncpy+0x4e>
   11a35:	8b 45 10             	mov    0x10(%ebp),%eax
   11a38:	8d 50 ff             	lea    -0x1(%eax),%edx
   11a3b:	89 55 10             	mov    %edx,0x10(%ebp)
   11a3e:	85 c0                	test   %eax,%eax
   11a40:	75 d2                	jne    11a14 <kernel_strncpy+0x20>
        *d++=*s++;
    }
    if(size==0){
   11a42:	83 7d 10 00          	cmpl   $0x0,0x10(%ebp)
   11a46:	75 0b                	jne    11a53 <kernel_strncpy+0x5f>
        *(d-1)='\0';
   11a48:	8b 45 fc             	mov    -0x4(%ebp),%eax
   11a4b:	83 e8 01             	sub    $0x1,%eax
   11a4e:	c6 00 00             	movb   $0x0,(%eax)
    }else{
        *d='\0';
    }
    return ;
   11a51:	eb 0a                	jmp    11a5d <kernel_strncpy+0x69>
        *d++=*s++;
    }
    if(size==0){
        *(d-1)='\0';
    }else{
        *d='\0';
   11a53:	8b 45 fc             	mov    -0x4(%ebp),%eax
   11a56:	c6 00 00             	movb   $0x0,(%eax)
    }
    return ;
   11a59:	90                   	nop
   11a5a:	eb 01                	jmp    11a5d <kernel_strncpy+0x69>
    *dest='\0';
    return ;
}
void kernel_strncpy(char*dest,char*src,int size){
    if(!dest||!src){
        return ;
   11a5c:	90                   	nop
        *(d-1)='\0';
    }else{
        *d='\0';
    }
    return ;
}
   11a5d:	c9                   	leave  
   11a5e:	c3                   	ret    

00011a5f <kernel_strncmp>:
int kernel_strncmp(const char*s1,const char*s2,int size){
   11a5f:	55                   	push   %ebp
   11a60:	89 e5                	mov    %esp,%ebp
    if(!s1||!s2){
   11a62:	83 7d 08 00          	cmpl   $0x0,0x8(%ebp)
   11a66:	74 06                	je     11a6e <kernel_strncmp+0xf>
   11a68:	83 7d 0c 00          	cmpl   $0x0,0xc(%ebp)
   11a6c:	75 37                	jne    11aa5 <kernel_strncmp+0x46>
        return -1;
   11a6e:	b8 ff ff ff ff       	mov    $0xffffffff,%eax
   11a73:	eb 56                	jmp    11acb <kernel_strncmp+0x6c>
    }
    while(*s1!='\0'&&*s2!='\0'&&size--){
        if(*s1!=*s2){
   11a75:	8b 45 08             	mov    0x8(%ebp),%eax
   11a78:	0f b6 10             	movzbl (%eax),%edx
   11a7b:	8b 45 0c             	mov    0xc(%ebp),%eax
   11a7e:	0f b6 00             	movzbl (%eax),%eax
   11a81:	38 c2                	cmp    %al,%dl
   11a83:	74 18                	je     11a9d <kernel_strncmp+0x3e>
            return *s1-*s2;
   11a85:	8b 45 08             	mov    0x8(%ebp),%eax
   11a88:	0f b6 00             	movzbl (%eax),%eax
   11a8b:	0f be d0             	movsbl %al,%edx
   11a8e:	8b 45 0c             	mov    0xc(%ebp),%eax
   11a91:	0f b6 00             	movzbl (%eax),%eax
   11a94:	0f be c0             	movsbl %al,%eax
   11a97:	29 c2                	sub    %eax,%edx
   11a99:	89 d0                	mov    %edx,%eax
   11a9b:	eb 2e                	jmp    11acb <kernel_strncmp+0x6c>
        }
        s1++;
   11a9d:	83 45 08 01          	addl   $0x1,0x8(%ebp)
        s2++;
   11aa1:	83 45 0c 01          	addl   $0x1,0xc(%ebp)
}
int kernel_strncmp(const char*s1,const char*s2,int size){
    if(!s1||!s2){
        return -1;
    }
    while(*s1!='\0'&&*s2!='\0'&&size--){
   11aa5:	8b 45 08             	mov    0x8(%ebp),%eax
   11aa8:	0f b6 00             	movzbl (%eax),%eax
   11aab:	84 c0                	test   %al,%al
   11aad:	74 17                	je     11ac6 <kernel_strncmp+0x67>
   11aaf:	8b 45 0c             	mov    0xc(%ebp),%eax
   11ab2:	0f b6 00             	movzbl (%eax),%eax
   11ab5:	84 c0                	test   %al,%al
   11ab7:	74 0d                	je     11ac6 <kernel_strncmp+0x67>
   11ab9:	8b 45 10             	mov    0x10(%ebp),%eax
   11abc:	8d 50 ff             	lea    -0x1(%eax),%edx
   11abf:	89 55 10             	mov    %edx,0x10(%ebp)
   11ac2:	85 c0                	test   %eax,%eax
   11ac4:	75 af                	jne    11a75 <kernel_strncmp+0x16>
            return *s1-*s2;
        }
        s1++;
        s2++;
    }
    return 0;
   11ac6:	b8 00 00 00 00       	mov    $0x0,%eax
}
   11acb:	5d                   	pop    %ebp
   11acc:	c3                   	ret    

00011acd <kernel_strlen>:
int kernel_strlen(const char*s){
   11acd:	55                   	push   %ebp
   11ace:	89 e5                	mov    %esp,%ebp
   11ad0:	83 ec 10             	sub    $0x10,%esp
    if(!s){
   11ad3:	83 7d 08 00          	cmpl   $0x0,0x8(%ebp)
   11ad7:	75 07                	jne    11ae0 <kernel_strlen+0x13>
        return -1;
   11ad9:	b8 ff ff ff ff       	mov    $0xffffffff,%eax
   11ade:	eb 1e                	jmp    11afe <kernel_strlen+0x31>
    }
    int len=0;
   11ae0:	c7 45 fc 00 00 00 00 	movl   $0x0,-0x4(%ebp)
    while(*s!='\0'){
   11ae7:	eb 08                	jmp    11af1 <kernel_strlen+0x24>
        len++;
   11ae9:	83 45 fc 01          	addl   $0x1,-0x4(%ebp)
        s++;
   11aed:	83 45 08 01          	addl   $0x1,0x8(%ebp)
int kernel_strlen(const char*s){
    if(!s){
        return -1;
    }
    int len=0;
    while(*s!='\0'){
   11af1:	8b 45 08             	mov    0x8(%ebp),%eax
   11af4:	0f b6 00             	movzbl (%eax),%eax
   11af7:	84 c0                	test   %al,%al
   11af9:	75 ee                	jne    11ae9 <kernel_strlen+0x1c>
        len++;
        s++;
    }
    return len;
   11afb:	8b 45 fc             	mov    -0x4(%ebp),%eax
}
   11afe:	c9                   	leave  
   11aff:	c3                   	ret    

00011b00 <kernel_strcat>:
void kernel_strcat(char*dest,const char*src){
   11b00:	55                   	push   %ebp
   11b01:	89 e5                	mov    %esp,%ebp
    if(!dest||!src){
   11b03:	83 7d 08 00          	cmpl   $0x0,0x8(%ebp)
   11b07:	74 06                	je     11b0f <kernel_strcat+0xf>
   11b09:	83 7d 0c 00          	cmpl   $0x0,0xc(%ebp)
   11b0d:	eb 01                	jmp    11b10 <kernel_strcat+0x10>
        return ;
   11b0f:	90                   	nop
    }

}
   11b10:	5d                   	pop    %ebp
   11b11:	c3                   	ret    

00011b12 <kernel_memcpy>:
void kernel_memcpy(void*dest,void*src,int size){
   11b12:	55                   	push   %ebp
   11b13:	89 e5                	mov    %esp,%ebp
   11b15:	83 ec 10             	sub    $0x10,%esp
    if(!dest||!src||!size){
   11b18:	83 7d 08 00          	cmpl   $0x0,0x8(%ebp)
   11b1c:	74 40                	je     11b5e <kernel_memcpy+0x4c>
   11b1e:	83 7d 0c 00          	cmpl   $0x0,0xc(%ebp)
   11b22:	74 3a                	je     11b5e <kernel_memcpy+0x4c>
   11b24:	83 7d 10 00          	cmpl   $0x0,0x10(%ebp)
   11b28:	74 34                	je     11b5e <kernel_memcpy+0x4c>
        return ;
    }
    uint8_t*d=(uint8_t*)dest;
   11b2a:	8b 45 08             	mov    0x8(%ebp),%eax
   11b2d:	89 45 fc             	mov    %eax,-0x4(%ebp)
    uint8_t*s=(uint8_t*)src;
   11b30:	8b 45 0c             	mov    0xc(%ebp),%eax
   11b33:	89 45 f8             	mov    %eax,-0x8(%ebp)
    while(size--){
   11b36:	eb 17                	jmp    11b4f <kernel_memcpy+0x3d>
        *d++=*s++;
   11b38:	8b 45 fc             	mov    -0x4(%ebp),%eax
   11b3b:	8d 50 01             	lea    0x1(%eax),%edx
   11b3e:	89 55 fc             	mov    %edx,-0x4(%ebp)
   11b41:	8b 55 f8             	mov    -0x8(%ebp),%edx
   11b44:	8d 4a 01             	lea    0x1(%edx),%ecx
   11b47:	89 4d f8             	mov    %ecx,-0x8(%ebp)
   11b4a:	0f b6 12             	movzbl (%edx),%edx
   11b4d:	88 10                	mov    %dl,(%eax)
    if(!dest||!src||!size){
        return ;
    }
    uint8_t*d=(uint8_t*)dest;
    uint8_t*s=(uint8_t*)src;
    while(size--){
   11b4f:	8b 45 10             	mov    0x10(%ebp),%eax
   11b52:	8d 50 ff             	lea    -0x1(%eax),%edx
   11b55:	89 55 10             	mov    %edx,0x10(%ebp)
   11b58:	85 c0                	test   %eax,%eax
   11b5a:	75 dc                	jne    11b38 <kernel_memcpy+0x26>
   11b5c:	eb 01                	jmp    11b5f <kernel_memcpy+0x4d>
    }

}
void kernel_memcpy(void*dest,void*src,int size){
    if(!dest||!src||!size){
        return ;
   11b5e:	90                   	nop
    uint8_t*d=(uint8_t*)dest;
    uint8_t*s=(uint8_t*)src;
    while(size--){
        *d++=*s++;
    }   
}
   11b5f:	c9                   	leave  
   11b60:	c3                   	ret    

00011b61 <kernel_memset>:
void kernel_memset(void*dest,uint8_t value,int size){
   11b61:	55                   	push   %ebp
   11b62:	89 e5                	mov    %esp,%ebp
   11b64:	83 ec 14             	sub    $0x14,%esp
   11b67:	8b 45 0c             	mov    0xc(%ebp),%eax
   11b6a:	88 45 ec             	mov    %al,-0x14(%ebp)
    if(!dest||!size){
   11b6d:	83 7d 08 00          	cmpl   $0x0,0x8(%ebp)
   11b71:	74 2c                	je     11b9f <kernel_memset+0x3e>
   11b73:	83 7d 10 00          	cmpl   $0x0,0x10(%ebp)
   11b77:	74 26                	je     11b9f <kernel_memset+0x3e>
        return ;
    }
    uint8_t*d=(uint8_t*)dest;
   11b79:	8b 45 08             	mov    0x8(%ebp),%eax
   11b7c:	89 45 fc             	mov    %eax,-0x4(%ebp)
    while(size--){
   11b7f:	eb 0f                	jmp    11b90 <kernel_memset+0x2f>
        *d++=value;
   11b81:	8b 45 fc             	mov    -0x4(%ebp),%eax
   11b84:	8d 50 01             	lea    0x1(%eax),%edx
   11b87:	89 55 fc             	mov    %edx,-0x4(%ebp)
   11b8a:	0f b6 55 ec          	movzbl -0x14(%ebp),%edx
   11b8e:	88 10                	mov    %dl,(%eax)
void kernel_memset(void*dest,uint8_t value,int size){
    if(!dest||!size){
        return ;
    }
    uint8_t*d=(uint8_t*)dest;
    while(size--){
   11b90:	8b 45 10             	mov    0x10(%ebp),%eax
   11b93:	8d 50 ff             	lea    -0x1(%eax),%edx
   11b96:	89 55 10             	mov    %edx,0x10(%ebp)
   11b99:	85 c0                	test   %eax,%eax
   11b9b:	75 e4                	jne    11b81 <kernel_memset+0x20>
   11b9d:	eb 01                	jmp    11ba0 <kernel_memset+0x3f>
        *d++=*s++;
    }   
}
void kernel_memset(void*dest,uint8_t value,int size){
    if(!dest||!size){
        return ;
   11b9f:	90                   	nop
    }
    uint8_t*d=(uint8_t*)dest;
    while(size--){
        *d++=value;
    }
}
   11ba0:	c9                   	leave  
   11ba1:	c3                   	ret    

00011ba2 <kernel_memcmp>:
int kernel_memcmp(void*s1,void*s2,int size){
   11ba2:	55                   	push   %ebp
   11ba3:	89 e5                	mov    %esp,%ebp

}
   11ba5:	90                   	nop
   11ba6:	5d                   	pop    %ebp
   11ba7:	c3                   	ret    

00011ba8 <kernel_itoa>:
void kernel_itoa(char*buf,int num,int base){
   11ba8:	55                   	push   %ebp
   11ba9:	89 e5                	mov    %esp,%ebp

}
   11bab:	90                   	nop
   11bac:	5d                   	pop    %ebp
   11bad:	c3                   	ret    

00011bae <kernel_sprintf>:
void kernel_sprintf(char*buf,const char*fmt,...){
   11bae:	55                   	push   %ebp
   11baf:	89 e5                	mov    %esp,%ebp

}
   11bb1:	90                   	nop
   11bb2:	5d                   	pop    %ebp
   11bb3:	c3                   	ret    

00011bb4 <kernel_vsprintf>:
void kernel_vsprintf(char * buffer, const char * fmt, va_list args){
   11bb4:	55                   	push   %ebp
   11bb5:	89 e5                	mov    %esp,%ebp

   11bb7:	90                   	nop
   11bb8:	5d                   	pop    %ebp
   11bb9:	c3                   	ret    

00011bba <list_is_empty>:
    list_node_t *first;
    list_node_t *last;
    int count;
}list_t;
void list_init(list_t *list);
static inline int list_is_empty(list_t *list){
   11bba:	55                   	push   %ebp
   11bbb:	89 e5                	mov    %esp,%ebp
    return list->count == 0;
   11bbd:	8b 45 08             	mov    0x8(%ebp),%eax
   11bc0:	8b 40 08             	mov    0x8(%eax),%eax
   11bc3:	85 c0                	test   %eax,%eax
   11bc5:	0f 94 c0             	sete   %al
   11bc8:	0f b6 c0             	movzbl %al,%eax
}
   11bcb:	5d                   	pop    %ebp
   11bcc:	c3                   	ret    

00011bcd <list_init>:
#include"tools/list.h"
void list_init(list_t *list){
   11bcd:	55                   	push   %ebp
   11bce:	89 e5                	mov    %esp,%ebp
    list->last = (list_node_t*)0;
   11bd0:	8b 45 08             	mov    0x8(%ebp),%eax
   11bd3:	c7 40 04 00 00 00 00 	movl   $0x0,0x4(%eax)
    list->first = (list_node_t*)0;
   11bda:	8b 45 08             	mov    0x8(%ebp),%eax
   11bdd:	c7 00 00 00 00 00    	movl   $0x0,(%eax)
    list->count = 0;
   11be3:	8b 45 08             	mov    0x8(%ebp),%eax
   11be6:	c7 40 08 00 00 00 00 	movl   $0x0,0x8(%eax)
}
   11bed:	90                   	nop
   11bee:	5d                   	pop    %ebp
   11bef:	c3                   	ret    

00011bf0 <list_insert_first>:
    list_node_t *first;
    list_node_t *last;
    int count;
}list_t;
*/
void list_insert_first(list_t *list, list_node_t *node){
   11bf0:	55                   	push   %ebp
   11bf1:	89 e5                	mov    %esp,%ebp
    node->next=list->first;
   11bf3:	8b 45 08             	mov    0x8(%ebp),%eax
   11bf6:	8b 10                	mov    (%eax),%edx
   11bf8:	8b 45 0c             	mov    0xc(%ebp),%eax
   11bfb:	89 50 04             	mov    %edx,0x4(%eax)
    node->prev=(list_node_t*)0;
   11bfe:	8b 45 0c             	mov    0xc(%ebp),%eax
   11c01:	c7 00 00 00 00 00    	movl   $0x0,(%eax)
    if(list_is_empty(list)){
   11c07:	ff 75 08             	pushl  0x8(%ebp)
   11c0a:	e8 ab ff ff ff       	call   11bba <list_is_empty>
   11c0f:	83 c4 04             	add    $0x4,%esp
   11c12:	85 c0                	test   %eax,%eax
   11c14:	74 13                	je     11c29 <list_insert_first+0x39>
        list->last=node;
   11c16:	8b 45 08             	mov    0x8(%ebp),%eax
   11c19:	8b 55 0c             	mov    0xc(%ebp),%edx
   11c1c:	89 50 04             	mov    %edx,0x4(%eax)
        list->first=node;
   11c1f:	8b 45 08             	mov    0x8(%ebp),%eax
   11c22:	8b 55 0c             	mov    0xc(%ebp),%edx
   11c25:	89 10                	mov    %edx,(%eax)
   11c27:	eb 12                	jmp    11c3b <list_insert_first+0x4b>
    }else{
        list->first->prev=node;
   11c29:	8b 45 08             	mov    0x8(%ebp),%eax
   11c2c:	8b 00                	mov    (%eax),%eax
   11c2e:	8b 55 0c             	mov    0xc(%ebp),%edx
   11c31:	89 10                	mov    %edx,(%eax)
        list->first=node;   
   11c33:	8b 45 08             	mov    0x8(%ebp),%eax
   11c36:	8b 55 0c             	mov    0xc(%ebp),%edx
   11c39:	89 10                	mov    %edx,(%eax)
    }
    list->count++;
   11c3b:	8b 45 08             	mov    0x8(%ebp),%eax
   11c3e:	8b 40 08             	mov    0x8(%eax),%eax
   11c41:	8d 50 01             	lea    0x1(%eax),%edx
   11c44:	8b 45 08             	mov    0x8(%ebp),%eax
   11c47:	89 50 08             	mov    %edx,0x8(%eax)
}
   11c4a:	90                   	nop
   11c4b:	c9                   	leave  
   11c4c:	c3                   	ret    

00011c4d <list_insert_last>:

void list_insert_last(list_t *list, list_node_t *node){
   11c4d:	55                   	push   %ebp
   11c4e:	89 e5                	mov    %esp,%ebp
    node->next=(list_node_t*)0;
   11c50:	8b 45 0c             	mov    0xc(%ebp),%eax
   11c53:	c7 40 04 00 00 00 00 	movl   $0x0,0x4(%eax)
    node->prev=list->last;
   11c5a:	8b 45 08             	mov    0x8(%ebp),%eax
   11c5d:	8b 50 04             	mov    0x4(%eax),%edx
   11c60:	8b 45 0c             	mov    0xc(%ebp),%eax
   11c63:	89 10                	mov    %edx,(%eax)
    if(list_is_empty(list)){
   11c65:	ff 75 08             	pushl  0x8(%ebp)
   11c68:	e8 4d ff ff ff       	call   11bba <list_is_empty>
   11c6d:	83 c4 04             	add    $0x4,%esp
   11c70:	85 c0                	test   %eax,%eax
   11c72:	74 13                	je     11c87 <list_insert_last+0x3a>
        list->last=node;
   11c74:	8b 45 08             	mov    0x8(%ebp),%eax
   11c77:	8b 55 0c             	mov    0xc(%ebp),%edx
   11c7a:	89 50 04             	mov    %edx,0x4(%eax)
        list->first=node;
   11c7d:	8b 45 08             	mov    0x8(%ebp),%eax
   11c80:	8b 55 0c             	mov    0xc(%ebp),%edx
   11c83:	89 10                	mov    %edx,(%eax)
   11c85:	eb 15                	jmp    11c9c <list_insert_last+0x4f>
    }else{
        list->last->next=node;
   11c87:	8b 45 08             	mov    0x8(%ebp),%eax
   11c8a:	8b 40 04             	mov    0x4(%eax),%eax
   11c8d:	8b 55 0c             	mov    0xc(%ebp),%edx
   11c90:	89 50 04             	mov    %edx,0x4(%eax)
        list->last=node;
   11c93:	8b 45 08             	mov    0x8(%ebp),%eax
   11c96:	8b 55 0c             	mov    0xc(%ebp),%edx
   11c99:	89 50 04             	mov    %edx,0x4(%eax)
    }
    list->count++;
   11c9c:	8b 45 08             	mov    0x8(%ebp),%eax
   11c9f:	8b 40 08             	mov    0x8(%eax),%eax
   11ca2:	8d 50 01             	lea    0x1(%eax),%edx
   11ca5:	8b 45 08             	mov    0x8(%ebp),%eax
   11ca8:	89 50 08             	mov    %edx,0x8(%eax)
}
   11cab:	90                   	nop
   11cac:	c9                   	leave  
   11cad:	c3                   	ret    

00011cae <list_remove_first>:
list_node_t* list_remove_first(list_t *list){
   11cae:	55                   	push   %ebp
   11caf:	89 e5                	mov    %esp,%ebp
   11cb1:	83 ec 10             	sub    $0x10,%esp
    if(list_is_empty(list) ) return (list_node_t*)0;
   11cb4:	ff 75 08             	pushl  0x8(%ebp)
   11cb7:	e8 fe fe ff ff       	call   11bba <list_is_empty>
   11cbc:	83 c4 04             	add    $0x4,%esp
   11cbf:	85 c0                	test   %eax,%eax
   11cc1:	74 07                	je     11cca <list_remove_first+0x1c>
   11cc3:	b8 00 00 00 00       	mov    $0x0,%eax
   11cc8:	eb 6e                	jmp    11d38 <list_remove_first+0x8a>
    list_node_t*remove_node=list->first;
   11cca:	8b 45 08             	mov    0x8(%ebp),%eax
   11ccd:	8b 00                	mov    (%eax),%eax
   11ccf:	89 45 fc             	mov    %eax,-0x4(%ebp)
    list_node_t*next=list->first->next;
   11cd2:	8b 45 08             	mov    0x8(%ebp),%eax
   11cd5:	8b 00                	mov    (%eax),%eax
   11cd7:	8b 40 04             	mov    0x4(%eax),%eax
   11cda:	89 45 f8             	mov    %eax,-0x8(%ebp)
    if(next==(list_node_t*)0){
   11cdd:	83 7d f8 00          	cmpl   $0x0,-0x8(%ebp)
   11ce1:	75 1f                	jne    11d02 <list_remove_first+0x54>
        list->last=(list_node_t*)0;
   11ce3:	8b 45 08             	mov    0x8(%ebp),%eax
   11ce6:	c7 40 04 00 00 00 00 	movl   $0x0,0x4(%eax)
        list->first=(list_node_t*)0;
   11ced:	8b 45 08             	mov    0x8(%ebp),%eax
   11cf0:	c7 00 00 00 00 00    	movl   $0x0,(%eax)
        list->count=0;
   11cf6:	8b 45 08             	mov    0x8(%ebp),%eax
   11cf9:	c7 40 08 00 00 00 00 	movl   $0x0,0x8(%eax)
   11d00:	eb 11                	jmp    11d13 <list_remove_first+0x65>
    }else{
        next->prev=(list_node_t*)0;
   11d02:	8b 45 f8             	mov    -0x8(%ebp),%eax
   11d05:	c7 00 00 00 00 00    	movl   $0x0,(%eax)
        list->first=next;
   11d0b:	8b 45 08             	mov    0x8(%ebp),%eax
   11d0e:	8b 55 f8             	mov    -0x8(%ebp),%edx
   11d11:	89 10                	mov    %edx,(%eax)
    }
    remove_node->next=(list_node_t*)0;
   11d13:	8b 45 fc             	mov    -0x4(%ebp),%eax
   11d16:	c7 40 04 00 00 00 00 	movl   $0x0,0x4(%eax)
    remove_node->prev=(list_node_t*)0;
   11d1d:	8b 45 fc             	mov    -0x4(%ebp),%eax
   11d20:	c7 00 00 00 00 00    	movl   $0x0,(%eax)
    list->count--;
   11d26:	8b 45 08             	mov    0x8(%ebp),%eax
   11d29:	8b 40 08             	mov    0x8(%eax),%eax
   11d2c:	8d 50 ff             	lea    -0x1(%eax),%edx
   11d2f:	8b 45 08             	mov    0x8(%ebp),%eax
   11d32:	89 50 08             	mov    %edx,0x8(%eax)
    return remove_node;
   11d35:	8b 45 fc             	mov    -0x4(%ebp),%eax
}
   11d38:	c9                   	leave  
   11d39:	c3                   	ret    

00011d3a <list_remove>:
list_node_t* list_remove(list_t *list,list_node_t* remove_node){
   11d3a:	55                   	push   %ebp
   11d3b:	89 e5                	mov    %esp,%ebp
   11d3d:	83 ec 10             	sub    $0x10,%esp
    if(list_is_empty(list) ) return (list_node_t*)0;
   11d40:	ff 75 08             	pushl  0x8(%ebp)
   11d43:	e8 72 fe ff ff       	call   11bba <list_is_empty>
   11d48:	83 c4 04             	add    $0x4,%esp
   11d4b:	85 c0                	test   %eax,%eax
   11d4d:	74 0a                	je     11d59 <list_remove+0x1f>
   11d4f:	b8 00 00 00 00       	mov    $0x0,%eax
   11d54:	e9 c4 00 00 00       	jmp    11e1d <list_remove+0xe3>
    list_node_t*next=remove_node->next;
   11d59:	8b 45 0c             	mov    0xc(%ebp),%eax
   11d5c:	8b 40 04             	mov    0x4(%eax),%eax
   11d5f:	89 45 fc             	mov    %eax,-0x4(%ebp)
    list_node_t*prev=remove_node->prev;
   11d62:	8b 45 0c             	mov    0xc(%ebp),%eax
   11d65:	8b 00                	mov    (%eax),%eax
   11d67:	89 45 f8             	mov    %eax,-0x8(%ebp)
    if(next==(list_node_t*)0&&prev==(list_node_t*)0){
   11d6a:	83 7d fc 00          	cmpl   $0x0,-0x4(%ebp)
   11d6e:	75 25                	jne    11d95 <list_remove+0x5b>
   11d70:	83 7d f8 00          	cmpl   $0x0,-0x8(%ebp)
   11d74:	75 1f                	jne    11d95 <list_remove+0x5b>
        list->last=(list_node_t*)0;
   11d76:	8b 45 08             	mov    0x8(%ebp),%eax
   11d79:	c7 40 04 00 00 00 00 	movl   $0x0,0x4(%eax)
        list->first=(list_node_t*)0;
   11d80:	8b 45 08             	mov    0x8(%ebp),%eax
   11d83:	c7 00 00 00 00 00    	movl   $0x0,(%eax)
        list->count=0;
   11d89:	8b 45 08             	mov    0x8(%ebp),%eax
   11d8c:	c7 40 08 00 00 00 00 	movl   $0x0,0x8(%eax)
   11d93:	eb 72                	jmp    11e07 <list_remove+0xcd>
    }
    else if(next==(list_node_t*)0){
   11d95:	83 7d fc 00          	cmpl   $0x0,-0x4(%ebp)
   11d99:	75 24                	jne    11dbf <list_remove+0x85>
        list->last=prev;
   11d9b:	8b 45 08             	mov    0x8(%ebp),%eax
   11d9e:	8b 55 f8             	mov    -0x8(%ebp),%edx
   11da1:	89 50 04             	mov    %edx,0x4(%eax)
        prev->next=(list_node_t*)0;
   11da4:	8b 45 f8             	mov    -0x8(%ebp),%eax
   11da7:	c7 40 04 00 00 00 00 	movl   $0x0,0x4(%eax)
        list->count--;
   11dae:	8b 45 08             	mov    0x8(%ebp),%eax
   11db1:	8b 40 08             	mov    0x8(%eax),%eax
   11db4:	8d 50 ff             	lea    -0x1(%eax),%edx
   11db7:	8b 45 08             	mov    0x8(%ebp),%eax
   11dba:	89 50 08             	mov    %edx,0x8(%eax)
   11dbd:	eb 48                	jmp    11e07 <list_remove+0xcd>
    }else if(prev==(list_node_t*)0){
   11dbf:	83 7d f8 00          	cmpl   $0x0,-0x8(%ebp)
   11dc3:	75 22                	jne    11de7 <list_remove+0xad>
        list->first=next;
   11dc5:	8b 45 08             	mov    0x8(%ebp),%eax
   11dc8:	8b 55 fc             	mov    -0x4(%ebp),%edx
   11dcb:	89 10                	mov    %edx,(%eax)
        next->prev=(list_node_t*)0;
   11dcd:	8b 45 fc             	mov    -0x4(%ebp),%eax
   11dd0:	c7 00 00 00 00 00    	movl   $0x0,(%eax)
        list->count--;
   11dd6:	8b 45 08             	mov    0x8(%ebp),%eax
   11dd9:	8b 40 08             	mov    0x8(%eax),%eax
   11ddc:	8d 50 ff             	lea    -0x1(%eax),%edx
   11ddf:	8b 45 08             	mov    0x8(%ebp),%eax
   11de2:	89 50 08             	mov    %edx,0x8(%eax)
   11de5:	eb 20                	jmp    11e07 <list_remove+0xcd>
    }else{
        next->prev=prev;
   11de7:	8b 45 fc             	mov    -0x4(%ebp),%eax
   11dea:	8b 55 f8             	mov    -0x8(%ebp),%edx
   11ded:	89 10                	mov    %edx,(%eax)
        prev->next=next;
   11def:	8b 45 f8             	mov    -0x8(%ebp),%eax
   11df2:	8b 55 fc             	mov    -0x4(%ebp),%edx
   11df5:	89 50 04             	mov    %edx,0x4(%eax)
        list->count--;
   11df8:	8b 45 08             	mov    0x8(%ebp),%eax
   11dfb:	8b 40 08             	mov    0x8(%eax),%eax
   11dfe:	8d 50 ff             	lea    -0x1(%eax),%edx
   11e01:	8b 45 08             	mov    0x8(%ebp),%eax
   11e04:	89 50 08             	mov    %edx,0x8(%eax)
    }
    remove_node->next=(list_node_t*)0;
   11e07:	8b 45 0c             	mov    0xc(%ebp),%eax
   11e0a:	c7 40 04 00 00 00 00 	movl   $0x0,0x4(%eax)
    remove_node->prev=(list_node_t*)0;
   11e11:	8b 45 0c             	mov    0xc(%ebp),%eax
   11e14:	c7 00 00 00 00 00    	movl   $0x0,(%eax)
    return remove_node;
   11e1a:	8b 45 0c             	mov    0xc(%ebp),%eax
   11e1d:	c9                   	leave  
   11e1e:	c3                   	ret    

00011e1f <hlt>:
    __asm__ __volatile__("cli");
}
static inline void sti(){  
    __asm__ __volatile__("sti");
}
static inline void hlt(){
   11e1f:	55                   	push   %ebp
   11e20:	89 e5                	mov    %esp,%ebp
    __asm__ __volatile__("hlt");
   11e22:	f4                   	hlt    
}
   11e23:	90                   	nop
   11e24:	5d                   	pop    %ebp
   11e25:	c3                   	ret    

00011e26 <write_tr>:
    return ret;
}
static inline void write_cr4(uint32_t val){
    __asm__ __volatile__("mov %[v], %%cr4" : : [v]"r"(val));
}
static inline void write_tr(uint16_t tss_sel){
   11e26:	55                   	push   %ebp
   11e27:	89 e5                	mov    %esp,%ebp
   11e29:	83 ec 04             	sub    $0x4,%esp
   11e2c:	8b 45 08             	mov    0x8(%ebp),%eax
   11e2f:	66 89 45 fc          	mov    %ax,-0x4(%ebp)
    __asm__ __volatile__("ltr %%ax" : : "a"(tss_sel));
   11e33:	0f b7 45 fc          	movzwl -0x4(%ebp),%eax
   11e37:	0f 00 d8             	ltr    %ax
}
   11e3a:	90                   	nop
   11e3b:	c9                   	leave  
   11e3c:	c3                   	ret    

00011e3d <list_node_init>:
    ((parent_type*)(node?offset_to_parent(node,parent_type,node_name):0))
typedef struct _list_node_t{
    struct _list_node_t *prev;
    struct _list_node_t *next;
}list_node_t;
static inline void list_node_init(list_node_t *node){
   11e3d:	55                   	push   %ebp
   11e3e:	89 e5                	mov    %esp,%ebp
    node->prev = node->next = (list_node_t*)0;
   11e40:	8b 45 08             	mov    0x8(%ebp),%eax
   11e43:	c7 40 04 00 00 00 00 	movl   $0x0,0x4(%eax)
   11e4a:	8b 45 08             	mov    0x8(%ebp),%eax
   11e4d:	8b 50 04             	mov    0x4(%eax),%edx
   11e50:	8b 45 08             	mov    0x8(%ebp),%eax
   11e53:	89 10                	mov    %edx,(%eax)
}
   11e55:	90                   	nop
   11e56:	5d                   	pop    %ebp
   11e57:	c3                   	ret    

00011e58 <list_node_next>:
static inline list_node_t*list_node_pre(list_node_t *node){
    return node->prev;
}
static inline list_node_t*list_node_next(list_node_t *node){
   11e58:	55                   	push   %ebp
   11e59:	89 e5                	mov    %esp,%ebp
    return node->next;
   11e5b:	8b 45 08             	mov    0x8(%ebp),%eax
   11e5e:	8b 40 04             	mov    0x4(%eax),%eax
}
   11e61:	5d                   	pop    %ebp
   11e62:	c3                   	ret    

00011e63 <list_count>:
}list_t;
void list_init(list_t *list);
static inline int list_is_empty(list_t *list){
    return list->count == 0;
}
static inline int list_count(list_t *list){
   11e63:	55                   	push   %ebp
   11e64:	89 e5                	mov    %esp,%ebp
    return list->count;
   11e66:	8b 45 08             	mov    0x8(%ebp),%eax
   11e69:	8b 40 08             	mov    0x8(%eax),%eax
}
   11e6c:	5d                   	pop    %ebp
   11e6d:	c3                   	ret    

00011e6e <list_first>:
static inline list_node_t*list_first(list_t *list){
   11e6e:	55                   	push   %ebp
   11e6f:	89 e5                	mov    %esp,%ebp
    return list->first;
   11e71:	8b 45 08             	mov    0x8(%ebp),%eax
   11e74:	8b 00                	mov    (%eax),%eax
}
   11e76:	5d                   	pop    %ebp
   11e77:	c3                   	ret    

00011e78 <tss_init>:
   - 一般的段描述符并不直接关联特定的数据结构。
4. 应用场景：
   - TSS 描述符主要用于任务切换和多任务处理，保存和恢复任务的状态。
   - 一般的段描述符用于定义代码、数据等内存段的属性和位置，用于访问内存中的数据。
总体而言，TSS 描述符是一种特殊用途的段描述符，用于管理任务状态和任务切换，而一般的段描述符用于定义常规的内存段的属性和访问权限。*/
static int tss_init(task_t*task,uint32_t entry,uint32_t esp){
   11e78:	55                   	push   %ebp
   11e79:	89 e5                	mov    %esp,%ebp
   11e7b:	83 ec 18             	sub    $0x18,%esp
    int tss_sel=gdt_alloc_desc();
   11e7e:	e8 7a e5 ff ff       	call   103fd <gdt_alloc_desc>
   11e83:	89 45 f4             	mov    %eax,-0xc(%ebp)
    if(tss_sel<0){
   11e86:	83 7d f4 00          	cmpl   $0x0,-0xc(%ebp)
   11e8a:	79 1a                	jns    11ea6 <tss_init+0x2e>
        log_printf("alloc tss failed.\n");
   11e8c:	83 ec 0c             	sub    $0xc,%esp
   11e8f:	68 b0 2a 01 00       	push   $0x12ab0
   11e94:	e8 72 f8 ff ff       	call   1170b <log_printf>
   11e99:	83 c4 10             	add    $0x10,%esp
        return -1;
   11e9c:	b8 ff ff ff ff       	mov    $0xffffffff,%eax
   11ea1:	e9 de 00 00 00       	jmp    11f84 <tss_init+0x10c>
    }
    segment_desc_set(tss_sel,(uint32_t)&task->tss,sizeof(task->tss),
   11ea6:	8b 45 08             	mov    0x8(%ebp),%eax
   11ea9:	83 c0 30             	add    $0x30,%eax
   11eac:	68 89 00 00 00       	push   $0x89
   11eb1:	6a 68                	push   $0x68
   11eb3:	50                   	push   %eax
   11eb4:	ff 75 f4             	pushl  -0xc(%ebp)
   11eb7:	e8 82 e4 ff ff       	call   1033e <segment_desc_set>
   11ebc:	83 c4 10             	add    $0x10,%esp
    SEG_P_PRESENT|SEG_DPL0|SEG_TYPE_TSS);
    kernel_memset(&task->tss,0,sizeof(task->tss));
   11ebf:	8b 45 08             	mov    0x8(%ebp),%eax
   11ec2:	83 c0 30             	add    $0x30,%eax
   11ec5:	83 ec 04             	sub    $0x4,%esp
   11ec8:	6a 68                	push   $0x68
   11eca:	6a 00                	push   $0x0
   11ecc:	50                   	push   %eax
   11ecd:	e8 8f fc ff ff       	call   11b61 <kernel_memset>
   11ed2:	83 c4 10             	add    $0x10,%esp
    task->tss.eip=entry;
   11ed5:	8b 45 08             	mov    0x8(%ebp),%eax
   11ed8:	8b 55 0c             	mov    0xc(%ebp),%edx
   11edb:	89 50 50             	mov    %edx,0x50(%eax)
    task->tss.esp=task->tss.esp0=esp;
   11ede:	8b 45 08             	mov    0x8(%ebp),%eax
   11ee1:	8b 55 10             	mov    0x10(%ebp),%edx
   11ee4:	89 50 34             	mov    %edx,0x34(%eax)
   11ee7:	8b 45 08             	mov    0x8(%ebp),%eax
   11eea:	8b 50 34             	mov    0x34(%eax),%edx
   11eed:	8b 45 08             	mov    0x8(%ebp),%eax
   11ef0:	89 50 68             	mov    %edx,0x68(%eax)
    task->tss.ss0=KERNEL_SELECTOR_DS;
   11ef3:	8b 45 08             	mov    0x8(%ebp),%eax
   11ef6:	c7 40 38 10 00 00 00 	movl   $0x10,0x38(%eax)
    task->tss.eflags=EFLAGS_DEFAULT|EFLAGS_IF;
   11efd:	8b 45 08             	mov    0x8(%ebp),%eax
   11f00:	c7 40 54 02 02 00 00 	movl   $0x202,0x54(%eax)
    task->tss.es=task->tss.ss=task->tss.ds=task->tss.fs=task->tss.gs=KERNEL_SELECTOR_DS;
   11f07:	8b 45 08             	mov    0x8(%ebp),%eax
   11f0a:	c7 80 8c 00 00 00 10 	movl   $0x10,0x8c(%eax)
   11f11:	00 00 00 
   11f14:	8b 45 08             	mov    0x8(%ebp),%eax
   11f17:	8b 90 8c 00 00 00    	mov    0x8c(%eax),%edx
   11f1d:	8b 45 08             	mov    0x8(%ebp),%eax
   11f20:	89 90 88 00 00 00    	mov    %edx,0x88(%eax)
   11f26:	8b 45 08             	mov    0x8(%ebp),%eax
   11f29:	8b 90 88 00 00 00    	mov    0x88(%eax),%edx
   11f2f:	8b 45 08             	mov    0x8(%ebp),%eax
   11f32:	89 90 84 00 00 00    	mov    %edx,0x84(%eax)
   11f38:	8b 45 08             	mov    0x8(%ebp),%eax
   11f3b:	8b 90 84 00 00 00    	mov    0x84(%eax),%edx
   11f41:	8b 45 08             	mov    0x8(%ebp),%eax
   11f44:	89 90 80 00 00 00    	mov    %edx,0x80(%eax)
   11f4a:	8b 45 08             	mov    0x8(%ebp),%eax
   11f4d:	8b 90 80 00 00 00    	mov    0x80(%eax),%edx
   11f53:	8b 45 08             	mov    0x8(%ebp),%eax
   11f56:	89 50 78             	mov    %edx,0x78(%eax)
    task->tss.cs=KERNEL_SELECTOR_CS;
   11f59:	8b 45 08             	mov    0x8(%ebp),%eax
   11f5c:	c7 40 7c 08 00 00 00 	movl   $0x8,0x7c(%eax)
    task->tss.iomap=0;
   11f63:	8b 45 08             	mov    0x8(%ebp),%eax
   11f66:	c7 80 94 00 00 00 00 	movl   $0x0,0x94(%eax)
   11f6d:	00 00 00 
    task->tss_sel=tss_sel;
   11f70:	8b 45 f4             	mov    -0xc(%ebp),%eax
   11f73:	89 c2                	mov    %eax,%edx
   11f75:	8b 45 08             	mov    0x8(%ebp),%eax
   11f78:	66 89 90 98 00 00 00 	mov    %dx,0x98(%eax)
    return 0;
   11f7f:	b8 00 00 00 00       	mov    $0x0,%eax
}
   11f84:	c9                   	leave  
   11f85:	c3                   	ret    

00011f86 <task_init>:

int task_init(task_t*task,const char*name,uint32_t entry,uint32_t esp){
   11f86:	55                   	push   %ebp
   11f87:	89 e5                	mov    %esp,%ebp
   11f89:	83 ec 18             	sub    $0x18,%esp
    //(task!=(task_t*)0);
    int err=tss_init(task,entry,esp);
   11f8c:	83 ec 04             	sub    $0x4,%esp
   11f8f:	ff 75 14             	pushl  0x14(%ebp)
   11f92:	ff 75 10             	pushl  0x10(%ebp)
   11f95:	ff 75 08             	pushl  0x8(%ebp)
   11f98:	e8 db fe ff ff       	call   11e78 <tss_init>
   11f9d:	83 c4 10             	add    $0x10,%esp
   11fa0:	89 45 f4             	mov    %eax,-0xc(%ebp)
    if(err<0){
   11fa3:	83 7d f4 00          	cmpl   $0x0,-0xc(%ebp)
   11fa7:	79 18                	jns    11fc1 <task_init+0x3b>
        log_printf("init task failed...\n");
   11fa9:	83 ec 0c             	sub    $0xc,%esp
   11fac:	68 c3 2a 01 00       	push   $0x12ac3
   11fb1:	e8 55 f7 ff ff       	call   1170b <log_printf>
   11fb6:	83 c4 10             	add    $0x10,%esp
        return err;
   11fb9:	8b 45 f4             	mov    -0xc(%ebp),%eax
   11fbc:	e9 cb 00 00 00       	jmp    1208c <task_init+0x106>
    }
    kernel_strncpy(task->name,name,TASK_NAME_SIZE);
   11fc1:	8b 45 08             	mov    0x8(%ebp),%eax
   11fc4:	83 c0 04             	add    $0x4,%eax
   11fc7:	83 ec 04             	sub    $0x4,%esp
   11fca:	6a 20                	push   $0x20
   11fcc:	ff 75 0c             	pushl  0xc(%ebp)
   11fcf:	50                   	push   %eax
   11fd0:	e8 1f fa ff ff       	call   119f4 <kernel_strncpy>
   11fd5:	83 c4 10             	add    $0x10,%esp
    task->state=TASK_CREATED;
   11fd8:	8b 45 08             	mov    0x8(%ebp),%eax
   11fdb:	c7 00 00 00 00 00    	movl   $0x0,(%eax)
    task->sleep_ticks=0;
   11fe1:	8b 45 08             	mov    0x8(%ebp),%eax
   11fe4:	c7 40 24 00 00 00 00 	movl   $0x0,0x24(%eax)
    task->priority=0;
   11feb:	8b 45 08             	mov    0x8(%ebp),%eax
   11fee:	c7 80 b4 00 00 00 00 	movl   $0x0,0xb4(%eax)
   11ff5:	00 00 00 
    task->time_slice=TASK_TIME_SLICE_DEFAULT;
   11ff8:	8b 45 08             	mov    0x8(%ebp),%eax
   11ffb:	c7 40 28 0a 00 00 00 	movl   $0xa,0x28(%eax)
    task->slice_ticks=task->time_slice;
   12002:	8b 45 08             	mov    0x8(%ebp),%eax
   12005:	8b 50 28             	mov    0x28(%eax),%edx
   12008:	8b 45 08             	mov    0x8(%ebp),%eax
   1200b:	89 50 2c             	mov    %edx,0x2c(%eax)
    list_node_init(&task->all_node);
   1200e:	8b 45 08             	mov    0x8(%ebp),%eax
   12011:	05 ac 00 00 00       	add    $0xac,%eax
   12016:	83 ec 0c             	sub    $0xc,%esp
   12019:	50                   	push   %eax
   1201a:	e8 1e fe ff ff       	call   11e3d <list_node_init>
   1201f:	83 c4 10             	add    $0x10,%esp
    list_node_init(&task->run_node);
   12022:	8b 45 08             	mov    0x8(%ebp),%eax
   12025:	05 9c 00 00 00       	add    $0x9c,%eax
   1202a:	83 ec 0c             	sub    $0xc,%esp
   1202d:	50                   	push   %eax
   1202e:	e8 0a fe ff ff       	call   11e3d <list_node_init>
   12033:	83 c4 10             	add    $0x10,%esp
    list_node_init(&task->wait_node);
   12036:	8b 45 08             	mov    0x8(%ebp),%eax
   12039:	05 a4 00 00 00       	add    $0xa4,%eax
   1203e:	83 ec 0c             	sub    $0xc,%esp
   12041:	50                   	push   %eax
   12042:	e8 f6 fd ff ff       	call   11e3d <list_node_init>
   12047:	83 c4 10             	add    $0x10,%esp
    irq_state_t state=irq_enter_protection();
   1204a:	e8 5b ee ff ff       	call   10eaa <irq_enter_protection>
   1204f:	89 45 f0             	mov    %eax,-0x10(%ebp)
    task_set_ready(task);
   12052:	83 ec 0c             	sub    $0xc,%esp
   12055:	ff 75 08             	pushl  0x8(%ebp)
   12058:	e8 34 01 00 00       	call   12191 <task_set_ready>
   1205d:	83 c4 10             	add    $0x10,%esp
    list_insert_last(&task_manager.task_list,&task->all_node);
   12060:	8b 45 08             	mov    0x8(%ebp),%eax
   12063:	05 ac 00 00 00       	add    $0xac,%eax
   12068:	83 ec 08             	sub    $0x8,%esp
   1206b:	50                   	push   %eax
   1206c:	68 90 37 01 00       	push   $0x13790
   12071:	e8 d7 fb ff ff       	call   11c4d <list_insert_last>
   12076:	83 c4 10             	add    $0x10,%esp
    irq_leave_protection(state);
   12079:	83 ec 0c             	sub    $0xc,%esp
   1207c:	ff 75 f0             	pushl  -0x10(%ebp)
   1207f:	e8 3e ee ff ff       	call   10ec2 <irq_leave_protection>
   12084:	83 c4 10             	add    $0x10,%esp
    return 0;
   12087:	b8 00 00 00 00       	mov    $0x0,%eax
}
   1208c:	c9                   	leave  
   1208d:	c3                   	ret    

0001208e <task_switch_from_to>:

void simple_switch(uint32_t **from,uint32_t *to);
void task_switch_from_to(task_t*from,task_t*to){
   1208e:	55                   	push   %ebp
   1208f:	89 e5                	mov    %esp,%ebp
   12091:	83 ec 08             	sub    $0x8,%esp
    switch_to_tss(to->tss_sel);
   12094:	8b 45 0c             	mov    0xc(%ebp),%eax
   12097:	0f b7 80 98 00 00 00 	movzwl 0x98(%eax),%eax
   1209e:	0f b7 c0             	movzwl %ax,%eax
   120a1:	83 ec 0c             	sub    $0xc,%esp
   120a4:	50                   	push   %eax
   120a5:	e8 05 e4 ff ff       	call   104af <switch_to_tss>
   120aa:	83 c4 10             	add    $0x10,%esp
}
   120ad:	90                   	nop
   120ae:	c9                   	leave  
   120af:	c3                   	ret    

000120b0 <task_first_init>:
void task_first_init(void){
   120b0:	55                   	push   %ebp
   120b1:	89 e5                	mov    %esp,%ebp
   120b3:	83 ec 08             	sub    $0x8,%esp
    task_init(&task_manager.idle_task,"first task",0,0);
   120b6:	6a 00                	push   $0x0
   120b8:	6a 00                	push   $0x0
   120ba:	68 d8 2a 01 00       	push   $0x12ad8
   120bf:	68 60 38 01 00       	push   $0x13860
   120c4:	e8 bd fe ff ff       	call   11f86 <task_init>
   120c9:	83 c4 10             	add    $0x10,%esp
    write_tr(task_manager.idle_task.tss_sel);
   120cc:	0f b7 05 f8 38 01 00 	movzwl 0x138f8,%eax
   120d3:	0f b7 c0             	movzwl %ax,%eax
   120d6:	83 ec 0c             	sub    $0xc,%esp
   120d9:	50                   	push   %eax
   120da:	e8 47 fd ff ff       	call   11e26 <write_tr>
   120df:	83 c4 10             	add    $0x10,%esp
    task_manager.curr_task=&task_manager.first_task;
   120e2:	c7 05 80 37 01 00 a8 	movl   $0x137a8,0x13780
   120e9:	37 01 00 
}
   120ec:	90                   	nop
   120ed:	c9                   	leave  
   120ee:	c3                   	ret    

000120ef <task_first_task>:

task_t*task_first_task(void){
   120ef:	55                   	push   %ebp
   120f0:	89 e5                	mov    %esp,%ebp
    return &task_manager.first_task;
   120f2:	b8 a8 37 01 00       	mov    $0x137a8,%eax
}
   120f7:	5d                   	pop    %ebp
   120f8:	c3                   	ret    

000120f9 <task_set_block>:
void task_set_block(task_t*task){
   120f9:	55                   	push   %ebp
   120fa:	89 e5                	mov    %esp,%ebp
   120fc:	83 ec 08             	sub    $0x8,%esp
    if(task!=&task_manager.idle_task){
   120ff:	81 7d 08 60 38 01 00 	cmpl   $0x13860,0x8(%ebp)
   12106:	74 19                	je     12121 <task_set_block+0x28>
        list_remove(&task_manager.ready_list,&task->run_node);
   12108:	8b 45 08             	mov    0x8(%ebp),%eax
   1210b:	05 9c 00 00 00       	add    $0x9c,%eax
   12110:	83 ec 08             	sub    $0x8,%esp
   12113:	50                   	push   %eax
   12114:	68 84 37 01 00       	push   $0x13784
   12119:	e8 1c fc ff ff       	call   11d3a <list_remove>
   1211e:	83 c4 10             	add    $0x10,%esp
    }
}
   12121:	90                   	nop
   12122:	c9                   	leave  
   12123:	c3                   	ret    

00012124 <idle_task_entry>:

static void idle_task_entry(void){
   12124:	55                   	push   %ebp
   12125:	89 e5                	mov    %esp,%ebp
    for(;;){
        hlt();
   12127:	e8 f3 fc ff ff       	call   11e1f <hlt>
    }
   1212c:	eb f9                	jmp    12127 <idle_task_entry+0x3>

0001212e <task_manager_init>:
}

void task_manager_init(void){
   1212e:	55                   	push   %ebp
   1212f:	89 e5                	mov    %esp,%ebp
   12131:	83 ec 08             	sub    $0x8,%esp
    list_init(&task_manager.ready_list);
   12134:	83 ec 0c             	sub    $0xc,%esp
   12137:	68 84 37 01 00       	push   $0x13784
   1213c:	e8 8c fa ff ff       	call   11bcd <list_init>
   12141:	83 c4 10             	add    $0x10,%esp
    list_init(&task_manager.task_list);
   12144:	83 ec 0c             	sub    $0xc,%esp
   12147:	68 90 37 01 00       	push   $0x13790
   1214c:	e8 7c fa ff ff       	call   11bcd <list_init>
   12151:	83 c4 10             	add    $0x10,%esp
    list_init(&task_manager.sleep_list);
   12154:	83 ec 0c             	sub    $0xc,%esp
   12157:	68 9c 37 01 00       	push   $0x1379c
   1215c:	e8 6c fa ff ff       	call   11bcd <list_init>
   12161:	83 c4 10             	add    $0x10,%esp
    task_init(&task_manager.idle_task,"idle task",(uint32_t)idle_task_entry,(uint32_t)(idle_task_stack + IDLE_STACK_SIZE));
   12164:	b8 20 49 01 00       	mov    $0x14920,%eax
   12169:	89 c2                	mov    %eax,%edx
   1216b:	b8 24 21 01 00       	mov    $0x12124,%eax
   12170:	52                   	push   %edx
   12171:	50                   	push   %eax
   12172:	68 e3 2a 01 00       	push   $0x12ae3
   12177:	68 60 38 01 00       	push   $0x13860
   1217c:	e8 05 fe ff ff       	call   11f86 <task_init>
   12181:	83 c4 10             	add    $0x10,%esp
    task_manager.curr_task=(task_t*)0;
   12184:	c7 05 80 37 01 00 00 	movl   $0x0,0x13780
   1218b:	00 00 00 
}
   1218e:	90                   	nop
   1218f:	c9                   	leave  
   12190:	c3                   	ret    

00012191 <task_set_ready>:

void task_set_ready(task_t*task){
   12191:	55                   	push   %ebp
   12192:	89 e5                	mov    %esp,%ebp
   12194:	83 ec 08             	sub    $0x8,%esp
    if(task!=&task_manager.idle_task){
   12197:	81 7d 08 60 38 01 00 	cmpl   $0x13860,0x8(%ebp)
   1219e:	74 22                	je     121c2 <task_set_ready+0x31>
        list_insert_last(&task_manager.ready_list,&task->run_node);
   121a0:	8b 45 08             	mov    0x8(%ebp),%eax
   121a3:	05 9c 00 00 00       	add    $0x9c,%eax
   121a8:	83 ec 08             	sub    $0x8,%esp
   121ab:	50                   	push   %eax
   121ac:	68 84 37 01 00       	push   $0x13784
   121b1:	e8 97 fa ff ff       	call   11c4d <list_insert_last>
   121b6:	83 c4 10             	add    $0x10,%esp
        task->state=TASK_READY;
   121b9:	8b 45 08             	mov    0x8(%ebp),%eax
   121bc:	c7 00 03 00 00 00    	movl   $0x3,(%eax)
    }
}
   121c2:	90                   	nop
   121c3:	c9                   	leave  
   121c4:	c3                   	ret    

000121c5 <task_next_run>:

static task_t*task_next_run(void){
   121c5:	55                   	push   %ebp
   121c6:	89 e5                	mov    %esp,%ebp
   121c8:	83 ec 10             	sub    $0x10,%esp
    if(list_count(&task_manager.ready_list)==0){
   121cb:	68 84 37 01 00       	push   $0x13784
   121d0:	e8 8e fc ff ff       	call   11e63 <list_count>
   121d5:	83 c4 04             	add    $0x4,%esp
   121d8:	85 c0                	test   %eax,%eax
   121da:	75 07                	jne    121e3 <task_next_run+0x1e>
        return &task_manager.idle_task;
   121dc:	b8 60 38 01 00       	mov    $0x13860,%eax
   121e1:	eb 26                	jmp    12209 <task_next_run+0x44>
    }
    list_node_t*task_node=list_first(&task_manager.ready_list);
   121e3:	68 84 37 01 00       	push   $0x13784
   121e8:	e8 81 fc ff ff       	call   11e6e <list_first>
   121ed:	83 c4 04             	add    $0x4,%esp
   121f0:	89 45 fc             	mov    %eax,-0x4(%ebp)
    return list_node_parent(task_node,task_t,run_node);
   121f3:	83 7d fc 00          	cmpl   $0x0,-0x4(%ebp)
   121f7:	74 0a                	je     12203 <task_next_run+0x3e>
   121f9:	8b 45 fc             	mov    -0x4(%ebp),%eax
   121fc:	2d 9c 00 00 00       	sub    $0x9c,%eax
   12201:	eb 05                	jmp    12208 <task_next_run+0x43>
   12203:	b8 00 00 00 00       	mov    $0x0,%eax
   12208:	90                   	nop
}
   12209:	c9                   	leave  
   1220a:	c3                   	ret    

0001220b <task_set_sleep>:

void task_set_sleep(task_t*task,uint32_t sleep_tick){
   1220b:	55                   	push   %ebp
   1220c:	89 e5                	mov    %esp,%ebp
   1220e:	83 ec 08             	sub    $0x8,%esp
    if(sleep_tick<=0){
   12211:	83 7d 0c 00          	cmpl   $0x0,0xc(%ebp)
   12215:	74 2d                	je     12244 <task_set_sleep+0x39>
        return ;
    }
    task->sleep_ticks=sleep_tick;
   12217:	8b 55 0c             	mov    0xc(%ebp),%edx
   1221a:	8b 45 08             	mov    0x8(%ebp),%eax
   1221d:	89 50 24             	mov    %edx,0x24(%eax)
    task->state=TASK_SLEEP;
   12220:	8b 45 08             	mov    0x8(%ebp),%eax
   12223:	c7 00 02 00 00 00    	movl   $0x2,(%eax)
    list_insert_last(&task_manager.sleep_list,&task->run_node);
   12229:	8b 45 08             	mov    0x8(%ebp),%eax
   1222c:	05 9c 00 00 00       	add    $0x9c,%eax
   12231:	83 ec 08             	sub    $0x8,%esp
   12234:	50                   	push   %eax
   12235:	68 9c 37 01 00       	push   $0x1379c
   1223a:	e8 0e fa ff ff       	call   11c4d <list_insert_last>
   1223f:	83 c4 10             	add    $0x10,%esp
   12242:	eb 01                	jmp    12245 <task_set_sleep+0x3a>
    return list_node_parent(task_node,task_t,run_node);
}

void task_set_sleep(task_t*task,uint32_t sleep_tick){
    if(sleep_tick<=0){
        return ;
   12244:	90                   	nop
    }
    task->sleep_ticks=sleep_tick;
    task->state=TASK_SLEEP;
    list_insert_last(&task_manager.sleep_list,&task->run_node);
}
   12245:	c9                   	leave  
   12246:	c3                   	ret    

00012247 <task_set_wakeup>:

void task_set_wakeup(task_t*task){
   12247:	55                   	push   %ebp
   12248:	89 e5                	mov    %esp,%ebp
   1224a:	83 ec 08             	sub    $0x8,%esp
    list_remove(&task_manager.sleep_list,&task->run_node);
   1224d:	8b 45 08             	mov    0x8(%ebp),%eax
   12250:	05 9c 00 00 00       	add    $0x9c,%eax
   12255:	83 ec 08             	sub    $0x8,%esp
   12258:	50                   	push   %eax
   12259:	68 9c 37 01 00       	push   $0x1379c
   1225e:	e8 d7 fa ff ff       	call   11d3a <list_remove>
   12263:	83 c4 10             	add    $0x10,%esp
}
   12266:	90                   	nop
   12267:	c9                   	leave  
   12268:	c3                   	ret    

00012269 <task_current>:
task_t*task_current(void){
   12269:	55                   	push   %ebp
   1226a:	89 e5                	mov    %esp,%ebp
    return task_manager.curr_task;
   1226c:	a1 80 37 01 00       	mov    0x13780,%eax
}
   12271:	5d                   	pop    %ebp
   12272:	c3                   	ret    

00012273 <sys_yield>:
int sys_yield(void){
   12273:	55                   	push   %ebp
   12274:	89 e5                	mov    %esp,%ebp
   12276:	83 ec 18             	sub    $0x18,%esp
    irq_state_t state=irq_enter_protection();
   12279:	e8 2c ec ff ff       	call   10eaa <irq_enter_protection>
   1227e:	89 45 f4             	mov    %eax,-0xc(%ebp)
    if(list_count(&task_manager.ready_list)>1){
   12281:	83 ec 0c             	sub    $0xc,%esp
   12284:	68 84 37 01 00       	push   $0x13784
   12289:	e8 d5 fb ff ff       	call   11e63 <list_count>
   1228e:	83 c4 10             	add    $0x10,%esp
   12291:	83 f8 01             	cmp    $0x1,%eax
   12294:	7e 29                	jle    122bf <sys_yield+0x4c>
        task_t*task_cur=task_current();
   12296:	e8 ce ff ff ff       	call   12269 <task_current>
   1229b:	89 45 f0             	mov    %eax,-0x10(%ebp)
        task_set_block(task_cur);
   1229e:	83 ec 0c             	sub    $0xc,%esp
   122a1:	ff 75 f0             	pushl  -0x10(%ebp)
   122a4:	e8 50 fe ff ff       	call   120f9 <task_set_block>
   122a9:	83 c4 10             	add    $0x10,%esp
        task_set_ready(task_cur);
   122ac:	83 ec 0c             	sub    $0xc,%esp
   122af:	ff 75 f0             	pushl  -0x10(%ebp)
   122b2:	e8 da fe ff ff       	call   12191 <task_set_ready>
   122b7:	83 c4 10             	add    $0x10,%esp
        task_dispatch();
   122ba:	e8 07 00 00 00       	call   122c6 <task_dispatch>
    }
    return 0;
   122bf:	b8 00 00 00 00       	mov    $0x0,%eax
}
   122c4:	c9                   	leave  
   122c5:	c3                   	ret    

000122c6 <task_dispatch>:
void task_dispatch(void){
   122c6:	55                   	push   %ebp
   122c7:	89 e5                	mov    %esp,%ebp
   122c9:	83 ec 18             	sub    $0x18,%esp
    task_t*curr_task=task_current();
   122cc:	e8 98 ff ff ff       	call   12269 <task_current>
   122d1:	89 45 f4             	mov    %eax,-0xc(%ebp)
    task_t*next_task=task_next_run();
   122d4:	e8 ec fe ff ff       	call   121c5 <task_next_run>
   122d9:	89 45 f0             	mov    %eax,-0x10(%ebp)
    if(curr_task!=next_task){
   122dc:	8b 45 f4             	mov    -0xc(%ebp),%eax
   122df:	3b 45 f0             	cmp    -0x10(%ebp),%eax
   122e2:	74 22                	je     12306 <task_dispatch+0x40>
        task_manager.curr_task=next_task;
   122e4:	8b 45 f0             	mov    -0x10(%ebp),%eax
   122e7:	a3 80 37 01 00       	mov    %eax,0x13780
        next_task->state=TASK_RUNNING;
   122ec:	8b 45 f0             	mov    -0x10(%ebp),%eax
   122ef:	c7 00 01 00 00 00    	movl   $0x1,(%eax)
        task_switch_from_to(curr_task,next_task);
   122f5:	83 ec 08             	sub    $0x8,%esp
   122f8:	ff 75 f0             	pushl  -0x10(%ebp)
   122fb:	ff 75 f4             	pushl  -0xc(%ebp)
   122fe:	e8 8b fd ff ff       	call   1208e <task_switch_from_to>
   12303:	83 c4 10             	add    $0x10,%esp
    }
}
   12306:	90                   	nop
   12307:	c9                   	leave  
   12308:	c3                   	ret    

00012309 <task_time_tick>:
void task_time_tick(void){
   12309:	55                   	push   %ebp
   1230a:	89 e5                	mov    %esp,%ebp
   1230c:	83 ec 18             	sub    $0x18,%esp
    task_t*curr_task=task_current();
   1230f:	e8 55 ff ff ff       	call   12269 <task_current>
   12314:	89 45 f0             	mov    %eax,-0x10(%ebp)
    irq_state_t state=irq_enter_protection();
   12317:	e8 8e eb ff ff       	call   10eaa <irq_enter_protection>
   1231c:	89 45 ec             	mov    %eax,-0x14(%ebp)
    if(--curr_task->slice_ticks<=0){
   1231f:	8b 45 f0             	mov    -0x10(%ebp),%eax
   12322:	8b 40 2c             	mov    0x2c(%eax),%eax
   12325:	8d 50 ff             	lea    -0x1(%eax),%edx
   12328:	8b 45 f0             	mov    -0x10(%ebp),%eax
   1232b:	89 50 2c             	mov    %edx,0x2c(%eax)
   1232e:	8b 45 f0             	mov    -0x10(%ebp),%eax
   12331:	8b 40 2c             	mov    0x2c(%eax),%eax
   12334:	85 c0                	test   %eax,%eax
   12336:	7f 28                	jg     12360 <task_time_tick+0x57>
        curr_task->slice_ticks=curr_task->time_slice;
   12338:	8b 45 f0             	mov    -0x10(%ebp),%eax
   1233b:	8b 50 28             	mov    0x28(%eax),%edx
   1233e:	8b 45 f0             	mov    -0x10(%ebp),%eax
   12341:	89 50 2c             	mov    %edx,0x2c(%eax)
        task_set_block(curr_task);
   12344:	83 ec 0c             	sub    $0xc,%esp
   12347:	ff 75 f0             	pushl  -0x10(%ebp)
   1234a:	e8 aa fd ff ff       	call   120f9 <task_set_block>
   1234f:	83 c4 10             	add    $0x10,%esp
        task_set_ready(curr_task);
   12352:	83 ec 0c             	sub    $0xc,%esp
   12355:	ff 75 f0             	pushl  -0x10(%ebp)
   12358:	e8 34 fe ff ff       	call   12191 <task_set_ready>
   1235d:	83 c4 10             	add    $0x10,%esp
    }
    list_node_t*curr=list_first(&task_manager.sleep_list);
   12360:	83 ec 0c             	sub    $0xc,%esp
   12363:	68 9c 37 01 00       	push   $0x1379c
   12368:	e8 01 fb ff ff       	call   11e6e <list_first>
   1236d:	83 c4 10             	add    $0x10,%esp
   12370:	89 45 f4             	mov    %eax,-0xc(%ebp)
    while(curr){
   12373:	eb 5e                	jmp    123d3 <task_time_tick+0xca>
        task_t*task=list_node_parent(curr,task_t,run_node);
   12375:	83 7d f4 00          	cmpl   $0x0,-0xc(%ebp)
   12379:	74 0a                	je     12385 <task_time_tick+0x7c>
   1237b:	8b 45 f4             	mov    -0xc(%ebp),%eax
   1237e:	2d 9c 00 00 00       	sub    $0x9c,%eax
   12383:	eb 05                	jmp    1238a <task_time_tick+0x81>
   12385:	b8 00 00 00 00       	mov    $0x0,%eax
   1238a:	89 45 e8             	mov    %eax,-0x18(%ebp)
        if(--task->slice_ticks<=0){
   1238d:	8b 45 e8             	mov    -0x18(%ebp),%eax
   12390:	8b 40 2c             	mov    0x2c(%eax),%eax
   12393:	8d 50 ff             	lea    -0x1(%eax),%edx
   12396:	8b 45 e8             	mov    -0x18(%ebp),%eax
   12399:	89 50 2c             	mov    %edx,0x2c(%eax)
   1239c:	8b 45 e8             	mov    -0x18(%ebp),%eax
   1239f:	8b 40 2c             	mov    0x2c(%eax),%eax
   123a2:	85 c0                	test   %eax,%eax
   123a4:	7f 1c                	jg     123c2 <task_time_tick+0xb9>
            task_set_wakeup(task);
   123a6:	83 ec 0c             	sub    $0xc,%esp
   123a9:	ff 75 e8             	pushl  -0x18(%ebp)
   123ac:	e8 96 fe ff ff       	call   12247 <task_set_wakeup>
   123b1:	83 c4 10             	add    $0x10,%esp
            task_set_ready(task);
   123b4:	83 ec 0c             	sub    $0xc,%esp
   123b7:	ff 75 e8             	pushl  -0x18(%ebp)
   123ba:	e8 d2 fd ff ff       	call   12191 <task_set_ready>
   123bf:	83 c4 10             	add    $0x10,%esp
        }
        curr=list_node_next(curr);
   123c2:	83 ec 0c             	sub    $0xc,%esp
   123c5:	ff 75 f4             	pushl  -0xc(%ebp)
   123c8:	e8 8b fa ff ff       	call   11e58 <list_node_next>
   123cd:	83 c4 10             	add    $0x10,%esp
   123d0:	89 45 f4             	mov    %eax,-0xc(%ebp)
        curr_task->slice_ticks=curr_task->time_slice;
        task_set_block(curr_task);
        task_set_ready(curr_task);
    }
    list_node_t*curr=list_first(&task_manager.sleep_list);
    while(curr){
   123d3:	83 7d f4 00          	cmpl   $0x0,-0xc(%ebp)
   123d7:	75 9c                	jne    12375 <task_time_tick+0x6c>
            task_set_wakeup(task);
            task_set_ready(task);
        }
        curr=list_node_next(curr);
    }
    task_dispatch();
   123d9:	e8 e8 fe ff ff       	call   122c6 <task_dispatch>
    irq_leave_protection(state);
   123de:	83 ec 0c             	sub    $0xc,%esp
   123e1:	ff 75 ec             	pushl  -0x14(%ebp)
   123e4:	e8 d9 ea ff ff       	call   10ec2 <irq_leave_protection>
   123e9:	83 c4 10             	add    $0x10,%esp
}
   123ec:	90                   	nop
   123ed:	c9                   	leave  
   123ee:	c3                   	ret    

000123ef <sys_msleep>:
void sys_msleep(uint32_t ms){
   123ef:	55                   	push   %ebp
   123f0:	89 e5                	mov    %esp,%ebp
   123f2:	83 ec 18             	sub    $0x18,%esp
    if(ms<OS_TICK_MS){
   123f5:	83 7d 08 09          	cmpl   $0x9,0x8(%ebp)
   123f9:	77 07                	ja     12402 <sys_msleep+0x13>
        ms=OS_TICK_MS;
   123fb:	c7 45 08 0a 00 00 00 	movl   $0xa,0x8(%ebp)
    }
    irq_state_t state=irq_enter_protection();
   12402:	e8 a3 ea ff ff       	call   10eaa <irq_enter_protection>
   12407:	89 45 f4             	mov    %eax,-0xc(%ebp)
    task_set_block(task_manager.curr_task);
   1240a:	a1 80 37 01 00       	mov    0x13780,%eax
   1240f:	83 ec 0c             	sub    $0xc,%esp
   12412:	50                   	push   %eax
   12413:	e8 e1 fc ff ff       	call   120f9 <task_set_block>
   12418:	83 c4 10             	add    $0x10,%esp
    task_set_sleep(task_manager.curr_task,(ms+(OS_TICK_MS-1))/OS_TICK_MS);
   1241b:	8b 45 08             	mov    0x8(%ebp),%eax
   1241e:	83 c0 09             	add    $0x9,%eax
   12421:	ba cd cc cc cc       	mov    $0xcccccccd,%edx
   12426:	f7 e2                	mul    %edx
   12428:	c1 ea 03             	shr    $0x3,%edx
   1242b:	a1 80 37 01 00       	mov    0x13780,%eax
   12430:	83 ec 08             	sub    $0x8,%esp
   12433:	52                   	push   %edx
   12434:	50                   	push   %eax
   12435:	e8 d1 fd ff ff       	call   1220b <task_set_sleep>
   1243a:	83 c4 10             	add    $0x10,%esp
    task_dispatch();
   1243d:	e8 84 fe ff ff       	call   122c6 <task_dispatch>
    irq_leave_protection(state);
   12442:	83 ec 0c             	sub    $0xc,%esp
   12445:	ff 75 f4             	pushl  -0xc(%ebp)
   12448:	e8 75 ea ff ff       	call   10ec2 <irq_leave_protection>
   1244d:	83 c4 10             	add    $0x10,%esp
   12450:	90                   	nop
   12451:	c9                   	leave  
   12452:	c3                   	ret    
